
========================================================================

** ELF Header Information

    File Name: .\obj\PBD.axf

    Machine class: ELFCLASS32 (32-bit)
    Data encoding: ELFDATA2LSB (Little endian)
    Header version: EV_CURRENT (Current version)
    Operating System ABI: none
    ABI Version: 0
    File Type: ET_EXEC (Executable) (2)
    Machine: EM_ARM (ARM)

    Image Entry point: 0x00000169
    Flags: EF_ARM_HASENTRY (0x05000002)

    ARM ELF revision: 5 (ABI version 2)

    Built with
    ARM C/C++ Compiler, 4.1 [Build 644]
    ARM Assembler, 4.1 [Build 644]
    ARM Linker, 4.1 [Build 644] 

    Header size: 52 bytes (0x34)
    Program header entry size: 32 bytes (0x20)
    Section header entry size: 40 bytes (0x28)

    Program header entries: 1
    Section header entries: 16

    Program header offset: 425684 (0x00067ed4)
    Section header offset: 425716 (0x00067ef4)

    Section header string table index: 15

========================================================================

** Program header #0 (PT_LOAD) [PF_X + PF_W + PF_R + PF_ARM_ENTRY]
    Size : 6228 bytes (4992 bytes in file)
    Virtual address: 0x00000000 (Alignment 8)


========================================================================

** Section #1 'ER_RO' (SHT_PROGBITS) [SHF_ALLOC + SHF_EXECINSTR]
    Size   : 4876 bytes (alignment 4)
    Address: 0x00000000

    $d.realdata
    RESET
    __Vectors
        0x00000000:    20000548    H..     DCD    536872264
        0x00000004:    00000169    i...    DCD    361
        0x00000008:    00000189    ....    DCD    393
        0x0000000c:    0000018b    ....    DCD    395
        0x00000010:    00000000    ....    DCD    0
        0x00000014:    00000000    ....    DCD    0
        0x00000018:    00000000    ....    DCD    0
        0x0000001c:    00000000    ....    DCD    0
        0x00000020:    00000000    ....    DCD    0
        0x00000024:    00000000    ....    DCD    0
        0x00000028:    00000000    ....    DCD    0
        0x0000002c:    0000018d    ....    DCD    397
        0x00000030:    00000000    ....    DCD    0
        0x00000034:    00000000    ....    DCD    0
        0x00000038:    0000018f    ....    DCD    399
        0x0000003c:    00000191    ....    DCD    401
        0x00000040:    00000391    ....    DCD    913
        0x00000044:    00000193    ....    DCD    403
        0x00000048:    000005f5    ....    DCD    1525
        0x0000004c:    00000619    ....    DCD    1561
        0x00000050:    0000063d    =...    DCD    1597
        0x00000054:    0000067d    }...    DCD    1661
        0x00000058:    00000193    ....    DCD    403
        0x0000005c:    00000193    ....    DCD    403
        0x00000060:    00000dd5    ....    DCD    3541
        0x00000064:    00000193    ....    DCD    403
        0x00000068:    00000193    ....    DCD    403
        0x0000006c:    00000193    ....    DCD    403
        0x00000070:    00000f05    ....    DCD    3845
        0x00000074:    00000f41    A...    DCD    3905
        0x00000078:    00000a05    ....    DCD    2565
        0x0000007c:    00000a69    i...    DCD    2665
        0x00000080:    00000acd    ....    DCD    2765
        0x00000084:    00000b31    1...    DCD    2865
        0x00000088:    000006bd    ....    DCD    1725
        0x0000008c:    00000735    5...    DCD    1845
        0x00000090:    00000193    ....    DCD    403
        0x00000094:    00000193    ....    DCD    403
        0x00000098:    00000193    ....    DCD    403
        0x0000009c:    00000193    ....    DCD    403
        0x000000a0:    00000193    ....    DCD    403
        0x000000a4:    00000193    ....    DCD    403
        0x000000a8:    00000193    ....    DCD    403
        0x000000ac:    00000193    ....    DCD    403
        0x000000b0:    000009dd    ....    DCD    2525
        0x000000b4:    00000193    ....    DCD    403
        0x000000b8:    00000193    ....    DCD    403
        0x000000bc:    00000193    ....    DCD    403
    $t
    !!!main
    __main
        0x000000c0:    f000f802    ....    BL       __scatterload ; 0xc8
        0x000000c4:    f000f840    ..@.    BL       __rt_entry ; 0x148
    !!!scatter
    __scatterload
    __scatterload_rt2
    __scatterload_rt2_thumb_only
        0x000000c8:    a00c        ..      ADR      r0,{pc}+0x34 ; 0xfc
        0x000000ca:    c830        0.      LDM      r0!,{r4,r5}
        0x000000cc:    3808        .8      SUBS     r0,r0,#8
        0x000000ce:    1824        $.      ADDS     r4,r4,r0
        0x000000d0:    182d        -.      ADDS     r5,r5,r0
        0x000000d2:    46a2        .F      MOV      r10,r4
        0x000000d4:    1e67        g.      SUBS     r7,r4,#1
        0x000000d6:    46ab        .F      MOV      r11,r5
    __scatterload_null
        0x000000d8:    4654        TF      MOV      r4,r10
        0x000000da:    465d        ]F      MOV      r5,r11
        0x000000dc:    42ac        .B      CMP      r4,r5
        0x000000de:    d101        ..      BNE      0xe4 ; __scatterload_null + 12
        0x000000e0:    f000f832    ..2.    BL       __rt_entry ; 0x148
        0x000000e4:    467e        ~F      MOV      r6,pc
        0x000000e6:    3e0f        .>      SUBS     r6,r6,#0xf
        0x000000e8:    cc0f        ..      LDM      r4!,{r0-r3}
        0x000000ea:    46b6        .F      MOV      lr,r6
        0x000000ec:    2601        .&      MOVS     r6,#1
        0x000000ee:    4233        3B      TST      r3,r6
        0x000000f0:    d000        ..      BEQ      0xf4 ; __scatterload_null + 28
        0x000000f2:    1afb        ..      SUBS     r3,r7,r3
        0x000000f4:    46a2        .F      MOV      r10,r4
        0x000000f6:    46ab        .F      MOV      r11,r5
        0x000000f8:    4333        3C      ORRS     r3,r3,r6
        0x000000fa:    4718        .G      BX       r3
    $d
        0x000000fc:    000011f0    ....    DCD    4592
        0x00000100:    00001210    ....    DCD    4624
    $t
    !!handler_copy
    __scatterload_copy
        0x00000104:    3a10        .:      SUBS     r2,r2,#0x10
        0x00000106:    d302        ..      BCC      0x10e ; __scatterload_copy + 10
        0x00000108:    c878        x.      LDM      r0!,{r3-r6}
        0x0000010a:    c178        x.      STM      r1!,{r3-r6}
        0x0000010c:    d8fa        ..      BHI      __scatterload_copy ; 0x104
        0x0000010e:    0752        R.      LSLS     r2,r2,#29
        0x00000110:    d301        ..      BCC      0x116 ; __scatterload_copy + 18
        0x00000112:    c830        0.      LDM      r0!,{r4,r5}
        0x00000114:    c130        0.      STM      r1!,{r4,r5}
        0x00000116:    d501        ..      BPL      0x11c ; __scatterload_copy + 24
        0x00000118:    6804        .h      LDR      r4,[r0,#0]
        0x0000011a:    600c        .`      STR      r4,[r1,#0]
        0x0000011c:    4770        pG      BX       lr
        0x0000011e:    0000        ..      MOVS     r0,r0
    !!handler_zi
    __scatterload_zeroinit
        0x00000120:    2300        .#      MOVS     r3,#0
        0x00000122:    2400        .$      MOVS     r4,#0
        0x00000124:    2500        .%      MOVS     r5,#0
        0x00000126:    2600        .&      MOVS     r6,#0
        0x00000128:    3a10        .:      SUBS     r2,r2,#0x10
        0x0000012a:    d301        ..      BCC      0x130 ; __scatterload_zeroinit + 16
        0x0000012c:    c178        x.      STM      r1!,{r3-r6}
        0x0000012e:    d8fb        ..      BHI      0x128 ; __scatterload_zeroinit + 8
        0x00000130:    0752        R.      LSLS     r2,r2,#29
        0x00000132:    d300        ..      BCC      0x136 ; __scatterload_zeroinit + 22
        0x00000134:    c130        0.      STM      r1!,{r4,r5}
        0x00000136:    d500        ..      BPL      0x13a ; __scatterload_zeroinit + 26
        0x00000138:    600b        .`      STR      r3,[r1,#0]
        0x0000013a:    4770        pG      BX       lr
    .ARM.Collect$$libinit$$00000000
    __rt_lib_init
        0x0000013c:    b51f        ..      PUSH     {r0-r4,lr}
        0x0000013e:    46c0        .F      MOV      r8,r8
        0x00000140:    46c0        .F      MOV      r8,r8
    .ARM.Collect$$libinit$$00000006
    .ARM.Collect$$libinit$$00000008
    .ARM.Collect$$libinit$$0000000A
    .ARM.Collect$$libinit$$0000000D
    .ARM.Collect$$libinit$$0000000F
    .ARM.Collect$$libinit$$00000011
    .ARM.Collect$$libinit$$00000013
    .ARM.Collect$$libinit$$00000015
    .ARM.Collect$$libinit$$00000017
    .ARM.Collect$$libinit$$00000019
    .ARM.Collect$$libinit$$0000001B
    .ARM.Collect$$libinit$$0000001D
    .ARM.Collect$$libinit$$0000001F
    .ARM.Collect$$libinit$$00000021
    .ARM.Collect$$libinit$$00000028
    .ARM.Collect$$libinit$$0000002A
    .ARM.Collect$$libinit$$0000002C
    .ARM.Collect$$libinit$$0000002E
    .ARM.Collect$$libinit$$0000002F
    __rt_lib_init_alloca_1
    __rt_lib_init_argv_1
    __rt_lib_init_atexit_1
    __rt_lib_init_clock_1
    __rt_lib_init_cpp_1
    __rt_lib_init_exceptions_1
    __rt_lib_init_fp_trap_1
    __rt_lib_init_getenv_1
    __rt_lib_init_heap_1
    __rt_lib_init_lc_collate_1
    __rt_lib_init_lc_ctype_1
    __rt_lib_init_lc_monetary_1
    __rt_lib_init_lc_numeric_1
    __rt_lib_init_lc_time_1
    __rt_lib_init_rand_1
    __rt_lib_init_return
    __rt_lib_init_signal_1
    __rt_lib_init_stdio_1
    __rt_lib_init_user_alloc_1
        0x00000142:    bd1f        ..      POP      {r0-r4,pc}
    .ARM.Collect$$libshutdown$$00000000
    __rt_lib_shutdown
        0x00000144:    b510        ..      PUSH     {r4,lr}
    .ARM.Collect$$libshutdown$$00000003
    .ARM.Collect$$libshutdown$$00000006
    .ARM.Collect$$libshutdown$$00000009
    .ARM.Collect$$libshutdown$$0000000B
    .ARM.Collect$$libshutdown$$0000000E
    .ARM.Collect$$libshutdown$$0000000F
    __rt_lib_shutdown_fp_trap_1
    __rt_lib_shutdown_heap_1
    __rt_lib_shutdown_return
    __rt_lib_shutdown_signal_1
    __rt_lib_shutdown_stdio_1
    __rt_lib_shutdown_user_alloc_1
        0x00000146:    bd10        ..      POP      {r4,pc}
    .ARM.Collect$$rtentry$$00000000
    .ARM.Collect$$rtentry$$00000002
    .ARM.Collect$$rtentry$$00000004
    __rt_entry
    __rt_entry_presh_1
    __rt_entry_sh
        0x00000148:    f000f8f0    ....    BL       __user_setup_stackheap ; 0x32c
        0x0000014c:    4611        .F      MOV      r1,r2
    .ARM.Collect$$rtentry$$00000009
    .ARM.Collect$$rtentry$$0000000A
    __rt_entry_li
    __rt_entry_postsh_1
        0x0000014e:    f7fffff5    ....    BL       __rt_lib_init ; 0x13c
    .ARM.Collect$$rtentry$$0000000C
    .ARM.Collect$$rtentry$$0000000D
    __rt_entry_main
    __rt_entry_postli_1
        0x00000152:    f001f84b    ..K.    BL       main ; 0x11ec
        0x00000156:    f000f908    ....    BL       exit ; 0x36a
    .ARM.Collect$$rtexit$$00000000
    __rt_exit
        0x0000015a:    b403        ..      PUSH     {r0,r1}
    .ARM.Collect$$rtexit$$00000002
    .ARM.Collect$$rtexit$$00000003
    __rt_exit_ls
    __rt_exit_prels_1
        0x0000015c:    f7fffff2    ....    BL       __rt_lib_shutdown ; 0x144
    .ARM.Collect$$rtexit$$00000004
    __rt_exit_exit
        0x00000160:    bc03        ..      POP      {r0,r1}
        0x00000162:    f000f90d    ....    BL       _sys_exit ; 0x380
        0x00000166:    0000        ..      MOVS     r0,r0
    .text
    Reset_Handler
        0x00000168:    480d        .H      LDR      r0,[pc,#52] ; [0x1a0] = 0x50000100
        0x0000016a:    490e        .I      LDR      r1,[pc,#56] ; [0x1a4] = 0x59
        0x0000016c:    6001        .`      STR      r1,[r0,#0]
        0x0000016e:    490e        .I      LDR      r1,[pc,#56] ; [0x1a8] = 0x16
        0x00000170:    6001        .`      STR      r1,[r0,#0]
        0x00000172:    490e        .I      LDR      r1,[pc,#56] ; [0x1ac] = 0x88
        0x00000174:    6001        .`      STR      r1,[r0,#0]
        0x00000176:    4a0e        .J      LDR      r2,[pc,#56] ; [0x1b0] = 0x50000024
        0x00000178:    490e        .I      LDR      r1,[pc,#56] ; [0x1b4] = 0x5aa5
        0x0000017a:    6011        .`      STR      r1,[r2,#0]
        0x0000017c:    2100        .!      MOVS     r1,#0
        0x0000017e:    6001        .`      STR      r1,[r0,#0]
        0x00000180:    480d        .H      LDR      r0,[pc,#52] ; [0x1b8] = 0xdd1
        0x00000182:    4780        .G      BLX      r0
        0x00000184:    480d        .H      LDR      r0,[pc,#52] ; [0x1bc] = 0xc1
        0x00000186:    4700        .G      BX       r0
    NMI_Handler
        0x00000188:    e7fe        ..      B        NMI_Handler ; 0x188
    HardFault_Handler
        0x0000018a:    e7fe        ..      B        HardFault_Handler ; 0x18a
    SVC_Handler
        0x0000018c:    e7fe        ..      B        SVC_Handler ; 0x18c
    PendSV_Handler
        0x0000018e:    e7fe        ..      B        PendSV_Handler ; 0x18e
    SysTick_Handler
        0x00000190:    e7fe        ..      B        SysTick_Handler ; 0x190
    Default_Handler
    ACMP_IRQHandler
    ADC_IRQHandler
    CAN0_IRQHandler
    I2S_IRQHandler
    PDMA_IRQHandler
    PS2_IRQHandler
    PWMA_IRQHandler
    PWMB_IRQHandler
    RTC_IRQHandler
    TMR1_IRQHandler
    TMR2_IRQHandler
    TMR3_IRQHandler
    USBD_IRQHandler
    WDT_IRQHandler
        0x00000192:    e7fe        ..      B        Default_Handler ; 0x192
    __user_initial_stackheap
        0x00000194:    480a        .H      LDR      r0,[pc,#40] ; [0x1c0] = 0x20000148
        0x00000196:    490b        .I      LDR      r1,[pc,#44] ; [0x1c4] = 0x20000548
        0x00000198:    4a09        .J      LDR      r2,[pc,#36] ; [0x1c0] = 0x20000148
        0x0000019a:    4b0b        .K      LDR      r3,[pc,#44] ; [0x1c8] = 0x20000148
        0x0000019c:    4770        pG      BX       lr
    $d
        0x0000019e:    0000        ..      DCW    0
        0x000001a0:    50000100    ...P    DCD    1342177536
        0x000001a4:    00000059    Y...    DCD    89
        0x000001a8:    00000016    ....    DCD    22
        0x000001ac:    00000088    ....    DCD    136
        0x000001b0:    50000024    $..P    DCD    1342177316
        0x000001b4:    00005aa5    .Z..    DCD    23205
        0x000001b8:    00000dd1    ....    DCD    3537
        0x000001bc:    000000c1    ....    DCD    193
        0x000001c0:    20000148    H..     DCD    536871240
        0x000001c4:    20000548    H..     DCD    536872264
        0x000001c8:    20000148    H..     DCD    536871240
    $t
    .text
    __aeabi_uidiv
    __aeabi_uidivmod
        0x000001cc:    2200        ."      MOVS     r2,#0
        0x000001ce:    0903        ..      LSRS     r3,r0,#4
        0x000001d0:    428b        .B      CMP      r3,r1
        0x000001d2:    d32c        ,.      BCC      0x22e ; __aeabi_idiv + 78
        0x000001d4:    0a03        ..      LSRS     r3,r0,#8
        0x000001d6:    428b        .B      CMP      r3,r1
        0x000001d8:    d311        ..      BCC      0x1fe ; __aeabi_idiv + 30
        0x000001da:    2300        .#      MOVS     r3,#0
        0x000001dc:    469c        .F      MOV      r12,r3
        0x000001de:    e04e        N.      B        0x27e ; __aeabi_idiv + 158
    __aeabi_idiv
    __aeabi_idivmod
        0x000001e0:    4603        .F      MOV      r3,r0
        0x000001e2:    430b        .C      ORRS     r3,r3,r1
        0x000001e4:    d43c        <.      BMI      0x260 ; __aeabi_idiv + 128
        0x000001e6:    2200        ."      MOVS     r2,#0
        0x000001e8:    0843        C.      LSRS     r3,r0,#1
        0x000001ea:    428b        .B      CMP      r3,r1
        0x000001ec:    d331        1.      BCC      0x252 ; __aeabi_idiv + 114
        0x000001ee:    0903        ..      LSRS     r3,r0,#4
        0x000001f0:    428b        .B      CMP      r3,r1
        0x000001f2:    d31c        ..      BCC      0x22e ; __aeabi_idiv + 78
        0x000001f4:    0a03        ..      LSRS     r3,r0,#8
        0x000001f6:    428b        .B      CMP      r3,r1
        0x000001f8:    d301        ..      BCC      0x1fe ; __aeabi_idiv + 30
        0x000001fa:    4694        .F      MOV      r12,r2
        0x000001fc:    e03f        ?.      B        0x27e ; __aeabi_idiv + 158
        0x000001fe:    09c3        ..      LSRS     r3,r0,#7
        0x00000200:    428b        .B      CMP      r3,r1
        0x00000202:    d301        ..      BCC      0x208 ; __aeabi_idiv + 40
        0x00000204:    01cb        ..      LSLS     r3,r1,#7
        0x00000206:    1ac0        ..      SUBS     r0,r0,r3
        0x00000208:    4152        RA      ADCS     r2,r2,r2
        0x0000020a:    0983        ..      LSRS     r3,r0,#6
        0x0000020c:    428b        .B      CMP      r3,r1
        0x0000020e:    d301        ..      BCC      0x214 ; __aeabi_idiv + 52
        0x00000210:    018b        ..      LSLS     r3,r1,#6
        0x00000212:    1ac0        ..      SUBS     r0,r0,r3
        0x00000214:    4152        RA      ADCS     r2,r2,r2
        0x00000216:    0943        C.      LSRS     r3,r0,#5
        0x00000218:    428b        .B      CMP      r3,r1
        0x0000021a:    d301        ..      BCC      0x220 ; __aeabi_idiv + 64
        0x0000021c:    014b        K.      LSLS     r3,r1,#5
        0x0000021e:    1ac0        ..      SUBS     r0,r0,r3
        0x00000220:    4152        RA      ADCS     r2,r2,r2
        0x00000222:    0903        ..      LSRS     r3,r0,#4
        0x00000224:    428b        .B      CMP      r3,r1
        0x00000226:    d301        ..      BCC      0x22c ; __aeabi_idiv + 76
        0x00000228:    010b        ..      LSLS     r3,r1,#4
        0x0000022a:    1ac0        ..      SUBS     r0,r0,r3
        0x0000022c:    4152        RA      ADCS     r2,r2,r2
        0x0000022e:    08c3        ..      LSRS     r3,r0,#3
        0x00000230:    428b        .B      CMP      r3,r1
        0x00000232:    d301        ..      BCC      0x238 ; __aeabi_idiv + 88
        0x00000234:    00cb        ..      LSLS     r3,r1,#3
        0x00000236:    1ac0        ..      SUBS     r0,r0,r3
        0x00000238:    4152        RA      ADCS     r2,r2,r2
        0x0000023a:    0883        ..      LSRS     r3,r0,#2
        0x0000023c:    428b        .B      CMP      r3,r1
        0x0000023e:    d301        ..      BCC      0x244 ; __aeabi_idiv + 100
        0x00000240:    008b        ..      LSLS     r3,r1,#2
        0x00000242:    1ac0        ..      SUBS     r0,r0,r3
        0x00000244:    4152        RA      ADCS     r2,r2,r2
        0x00000246:    0843        C.      LSRS     r3,r0,#1
        0x00000248:    428b        .B      CMP      r3,r1
        0x0000024a:    d301        ..      BCC      0x250 ; __aeabi_idiv + 112
        0x0000024c:    004b        K.      LSLS     r3,r1,#1
        0x0000024e:    1ac0        ..      SUBS     r0,r0,r3
        0x00000250:    4152        RA      ADCS     r2,r2,r2
        0x00000252:    1a41        A.      SUBS     r1,r0,r1
        0x00000254:    d200        ..      BCS      0x258 ; __aeabi_idiv + 120
        0x00000256:    4601        .F      MOV      r1,r0
        0x00000258:    4152        RA      ADCS     r2,r2,r2
        0x0000025a:    4610        .F      MOV      r0,r2
        0x0000025c:    4770        pG      BX       lr
        0x0000025e:    e05d        ].      B        0x31c ; __aeabi_idiv + 316
        0x00000260:    0fca        ..      LSRS     r2,r1,#31
        0x00000262:    d000        ..      BEQ      0x266 ; __aeabi_idiv + 134
        0x00000264:    4249        IB      RSBS     r1,r1,#0
        0x00000266:    1003        ..      ASRS     r3,r0,#32
        0x00000268:    d300        ..      BCC      0x26c ; __aeabi_idiv + 140
        0x0000026a:    4240        @B      RSBS     r0,r0,#0
        0x0000026c:    4053        S@      EORS     r3,r3,r2
        0x0000026e:    2200        ."      MOVS     r2,#0
        0x00000270:    469c        .F      MOV      r12,r3
        0x00000272:    0903        ..      LSRS     r3,r0,#4
        0x00000274:    428b        .B      CMP      r3,r1
        0x00000276:    d32d        -.      BCC      0x2d4 ; __aeabi_idiv + 244
        0x00000278:    0a03        ..      LSRS     r3,r0,#8
        0x0000027a:    428b        .B      CMP      r3,r1
        0x0000027c:    d312        ..      BCC      0x2a4 ; __aeabi_idiv + 196
        0x0000027e:    22fc        ."      MOVS     r2,#0xfc
        0x00000280:    0189        ..      LSLS     r1,r1,#6
        0x00000282:    ba12        ..      REV      r2,r2
        0x00000284:    0a03        ..      LSRS     r3,r0,#8
        0x00000286:    428b        .B      CMP      r3,r1
        0x00000288:    d30c        ..      BCC      0x2a4 ; __aeabi_idiv + 196
        0x0000028a:    0189        ..      LSLS     r1,r1,#6
        0x0000028c:    1192        ..      ASRS     r2,r2,#6
        0x0000028e:    428b        .B      CMP      r3,r1
        0x00000290:    d308        ..      BCC      0x2a4 ; __aeabi_idiv + 196
        0x00000292:    0189        ..      LSLS     r1,r1,#6
        0x00000294:    1192        ..      ASRS     r2,r2,#6
        0x00000296:    428b        .B      CMP      r3,r1
        0x00000298:    d304        ..      BCC      0x2a4 ; __aeabi_idiv + 196
        0x0000029a:    0189        ..      LSLS     r1,r1,#6
        0x0000029c:    d03a        :.      BEQ      0x314 ; __aeabi_idiv + 308
        0x0000029e:    1192        ..      ASRS     r2,r2,#6
        0x000002a0:    e000        ..      B        0x2a4 ; __aeabi_idiv + 196
        0x000002a2:    0989        ..      LSRS     r1,r1,#6
        0x000002a4:    09c3        ..      LSRS     r3,r0,#7
        0x000002a6:    428b        .B      CMP      r3,r1
        0x000002a8:    d301        ..      BCC      0x2ae ; __aeabi_idiv + 206
        0x000002aa:    01cb        ..      LSLS     r3,r1,#7
        0x000002ac:    1ac0        ..      SUBS     r0,r0,r3
        0x000002ae:    4152        RA      ADCS     r2,r2,r2
        0x000002b0:    0983        ..      LSRS     r3,r0,#6
        0x000002b2:    428b        .B      CMP      r3,r1
        0x000002b4:    d301        ..      BCC      0x2ba ; __aeabi_idiv + 218
        0x000002b6:    018b        ..      LSLS     r3,r1,#6
        0x000002b8:    1ac0        ..      SUBS     r0,r0,r3
        0x000002ba:    4152        RA      ADCS     r2,r2,r2
        0x000002bc:    0943        C.      LSRS     r3,r0,#5
        0x000002be:    428b        .B      CMP      r3,r1
        0x000002c0:    d301        ..      BCC      0x2c6 ; __aeabi_idiv + 230
        0x000002c2:    014b        K.      LSLS     r3,r1,#5
        0x000002c4:    1ac0        ..      SUBS     r0,r0,r3
        0x000002c6:    4152        RA      ADCS     r2,r2,r2
        0x000002c8:    0903        ..      LSRS     r3,r0,#4
        0x000002ca:    428b        .B      CMP      r3,r1
        0x000002cc:    d301        ..      BCC      0x2d2 ; __aeabi_idiv + 242
        0x000002ce:    010b        ..      LSLS     r3,r1,#4
        0x000002d0:    1ac0        ..      SUBS     r0,r0,r3
        0x000002d2:    4152        RA      ADCS     r2,r2,r2
        0x000002d4:    08c3        ..      LSRS     r3,r0,#3
        0x000002d6:    428b        .B      CMP      r3,r1
        0x000002d8:    d301        ..      BCC      0x2de ; __aeabi_idiv + 254
        0x000002da:    00cb        ..      LSLS     r3,r1,#3
        0x000002dc:    1ac0        ..      SUBS     r0,r0,r3
        0x000002de:    4152        RA      ADCS     r2,r2,r2
        0x000002e0:    0883        ..      LSRS     r3,r0,#2
        0x000002e2:    428b        .B      CMP      r3,r1
        0x000002e4:    d301        ..      BCC      0x2ea ; __aeabi_idiv + 266
        0x000002e6:    008b        ..      LSLS     r3,r1,#2
        0x000002e8:    1ac0        ..      SUBS     r0,r0,r3
        0x000002ea:    4152        RA      ADCS     r2,r2,r2
        0x000002ec:    d2d9        ..      BCS      0x2a2 ; __aeabi_idiv + 194
        0x000002ee:    0843        C.      LSRS     r3,r0,#1
        0x000002f0:    428b        .B      CMP      r3,r1
        0x000002f2:    d301        ..      BCC      0x2f8 ; __aeabi_idiv + 280
        0x000002f4:    004b        K.      LSLS     r3,r1,#1
        0x000002f6:    1ac0        ..      SUBS     r0,r0,r3
        0x000002f8:    4152        RA      ADCS     r2,r2,r2
        0x000002fa:    1a41        A.      SUBS     r1,r0,r1
        0x000002fc:    d200        ..      BCS      0x300 ; __aeabi_idiv + 288
        0x000002fe:    4601        .F      MOV      r1,r0
        0x00000300:    4663        cF      MOV      r3,r12
        0x00000302:    4152        RA      ADCS     r2,r2,r2
        0x00000304:    105b        [.      ASRS     r3,r3,#1
        0x00000306:    4610        .F      MOV      r0,r2
        0x00000308:    d301        ..      BCC      0x30e ; __aeabi_idiv + 302
        0x0000030a:    4240        @B      RSBS     r0,r0,#0
        0x0000030c:    2b00        .+      CMP      r3,#0
        0x0000030e:    d500        ..      BPL      0x312 ; __aeabi_idiv + 306
        0x00000310:    4249        IB      RSBS     r1,r1,#0
        0x00000312:    4770        pG      BX       lr
        0x00000314:    4663        cF      MOV      r3,r12
        0x00000316:    105b        [.      ASRS     r3,r3,#1
        0x00000318:    d300        ..      BCC      0x31c ; __aeabi_idiv + 316
        0x0000031a:    4240        @B      RSBS     r0,r0,#0
        0x0000031c:    b501        ..      PUSH     {r0,lr}
        0x0000031e:    2000        .       MOVS     r0,#0
        0x00000320:    46c0        .F      MOV      r8,r8
        0x00000322:    46c0        .F      MOV      r8,r8
        0x00000324:    bd02        ..      POP      {r1,pc}
    .text
    __use_two_region_memory
        0x00000326:    4770        pG      BX       lr
    __rt_heap_escrow$2region
        0x00000328:    4770        pG      BX       lr
    __rt_heap_expand$2region
        0x0000032a:    4770        pG      BX       lr
    .text
    __user_setup_stackheap
        0x0000032c:    4675        uF      MOV      r5,lr
        0x0000032e:    f000f823    ..#.    BL       __user_libspace ; 0x378
        0x00000332:    46ae        .F      MOV      lr,r5
        0x00000334:    0005        ..      MOVS     r5,r0
        0x00000336:    4669        iF      MOV      r1,sp
        0x00000338:    4653        SF      MOV      r3,r10
        0x0000033a:    08c0        ..      LSRS     r0,r0,#3
        0x0000033c:    00c0        ..      LSLS     r0,r0,#3
        0x0000033e:    4685        .F      MOV      sp,r0
        0x00000340:    b018        ..      ADD      sp,sp,#0x60
        0x00000342:    b520         .      PUSH     {r5,lr}
        0x00000344:    f7ffff26    ..&.    BL       __user_initial_stackheap ; 0x194
        0x00000348:    bc60        `.      POP      {r5,r6}
        0x0000034a:    2700        .'      MOVS     r7,#0
        0x0000034c:    0849        I.      LSRS     r1,r1,#1
        0x0000034e:    46b6        .F      MOV      lr,r6
        0x00000350:    2600        .&      MOVS     r6,#0
        0x00000352:    c5c0        ..      STM      r5!,{r6,r7}
        0x00000354:    c5c0        ..      STM      r5!,{r6,r7}
        0x00000356:    c5c0        ..      STM      r5!,{r6,r7}
        0x00000358:    c5c0        ..      STM      r5!,{r6,r7}
        0x0000035a:    c5c0        ..      STM      r5!,{r6,r7}
        0x0000035c:    c5c0        ..      STM      r5!,{r6,r7}
        0x0000035e:    c5c0        ..      STM      r5!,{r6,r7}
        0x00000360:    c5c0        ..      STM      r5!,{r6,r7}
        0x00000362:    3d40        @=      SUBS     r5,r5,#0x40
        0x00000364:    0049        I.      LSLS     r1,r1,#1
        0x00000366:    468d        .F      MOV      sp,r1
        0x00000368:    4770        pG      BX       lr
    .text
    exit
        0x0000036a:    4604        .F      MOV      r4,r0
        0x0000036c:    46c0        .F      MOV      r8,r8
        0x0000036e:    46c0        .F      MOV      r8,r8
        0x00000370:    4620         F      MOV      r0,r4
        0x00000372:    f7fffef2    ....    BL       __rt_exit ; 0x15a
        0x00000376:    0000        ..      MOVS     r0,r0
    .text
    __user_libspace
    __user_perproc_libspace
    __user_perthread_libspace
        0x00000378:    4800        .H      LDR      r0,[pc,#0] ; [0x37c] = 0x200000e4
        0x0000037a:    4770        pG      BX       lr
    $d
        0x0000037c:    200000e4    ...     DCD    536871140
    $t
    .text
    _sys_exit
        0x00000380:    4901        .I      LDR      r1,[pc,#4] ; [0x388] = 0x20026
        0x00000382:    2018        .       MOVS     r0,#0x18
        0x00000384:    beab        ..      BKPT     #0xab
        0x00000386:    e7fe        ..      B        0x386 ; _sys_exit + 6
    $d
        0x00000388:    00020026    &...    DCD    131110
    $t
    .text
    __I$use$semihosting
    __use_no_semihosting_swi
        0x0000038c:    4770        pG      BX       lr
        0x0000038e:    0000        ..      MOVS     r0,r0
    i.BOD_IRQHandler
    BOD_IRQHandler
        0x00000390:    b510        ..      PUSH     {r4,lr}
        0x00000392:    2005        .       MOVS     r0,#5
        0x00000394:    0700        ..      LSLS     r0,r0,#28
        0x00000396:    6980        .i      LDR      r0,[r0,#0x18]
        0x00000398:    2110        .!      MOVS     r1,#0x10
        0x0000039a:    4388        .C      BICS     r0,r0,r1
        0x0000039c:    3010        .0      ADDS     r0,r0,#0x10
        0x0000039e:    4905        .I      LDR      r1,[pc,#20] ; [0x3b4] = 0x50000000
        0x000003a0:    6188        .a      STR      r0,[r1,#0x18]
        0x000003a2:    4805        .H      LDR      r0,[pc,#20] ; [0x3b8] = 0x20000050
        0x000003a4:    6800        .h      LDR      r0,[r0,#0]
        0x000003a6:    2800        .(      CMP      r0,#0
        0x000003a8:    d002        ..      BEQ      0x3b0 ; BOD_IRQHandler + 32
        0x000003aa:    4803        .H      LDR      r0,[pc,#12] ; [0x3b8] = 0x20000050
        0x000003ac:    6800        .h      LDR      r0,[r0,#0]
        0x000003ae:    4780        .G      BLX      r0
        0x000003b0:    bd10        ..      POP      {r4,pc}
    $d
        0x000003b2:    0000        ..      DCW    0
        0x000003b4:    50000000    ...P    DCD    1342177280
        0x000003b8:    20000050    P..     DCD    536870992
    $t
    i.DrvGPIO_ClrBit
    DrvGPIO_ClrBit
        0x000003bc:    b510        ..      PUSH     {r4,lr}
        0x000003be:    4603        .F      MOV      r3,r0
        0x000003c0:    2900        .)      CMP      r1,#0
        0x000003c2:    db01        ..      BLT      0x3c8 ; DrvGPIO_ClrBit + 12
        0x000003c4:    2910        .)      CMP      r1,#0x10
        0x000003c6:    dd01        ..      BLE      0x3cc ; DrvGPIO_ClrBit + 16
        0x000003c8:    4805        .H      LDR      r0,[pc,#20] ; [0x3e0] = 0xffff8901
        0x000003ca:    bd10        ..      POP      {r4,pc}
        0x000003cc:    0198        ..      LSLS     r0,r3,#6
        0x000003ce:    4c05        .L      LDR      r4,[pc,#20] ; [0x3e4] = 0x50004000
        0x000003d0:    1902        ..      ADDS     r2,r0,r4
        0x000003d2:    6890        .h      LDR      r0,[r2,#8]
        0x000003d4:    2401        .$      MOVS     r4,#1
        0x000003d6:    408c        .@      LSLS     r4,r4,r1
        0x000003d8:    43a0        .C      BICS     r0,r0,r4
        0x000003da:    6090        .`      STR      r0,[r2,#8]
        0x000003dc:    2000        .       MOVS     r0,#0
        0x000003de:    e7f4        ..      B        0x3ca ; DrvGPIO_ClrBit + 14
    $d
        0x000003e0:    ffff8901    ....    DCD    4294936833
        0x000003e4:    50004000    .@.P    DCD    1342193664
    $t
    i.DrvGPIO_GetBit
    DrvGPIO_GetBit
        0x000003e8:    b510        ..      PUSH     {r4,lr}
        0x000003ea:    4602        .F      MOV      r2,r0
        0x000003ec:    2900        .)      CMP      r1,#0
        0x000003ee:    db01        ..      BLT      0x3f4 ; DrvGPIO_GetBit + 12
        0x000003f0:    2910        .)      CMP      r1,#0x10
        0x000003f2:    dd01        ..      BLE      0x3f8 ; DrvGPIO_GetBit + 16
        0x000003f4:    4804        .H      LDR      r0,[pc,#16] ; [0x408] = 0xffff8901
        0x000003f6:    bd10        ..      POP      {r4,pc}
        0x000003f8:    4804        .H      LDR      r0,[pc,#16] ; [0x40c] = 0x50004010
        0x000003fa:    0194        ..      LSLS     r4,r2,#6
        0x000003fc:    1903        ..      ADDS     r3,r0,r4
        0x000003fe:    6818        .h      LDR      r0,[r3,#0]
        0x00000400:    40c8        .@      LSRS     r0,r0,r1
        0x00000402:    07c0        ..      LSLS     r0,r0,#31
        0x00000404:    0fc0        ..      LSRS     r0,r0,#31
        0x00000406:    e7f6        ..      B        0x3f6 ; DrvGPIO_GetBit + 14
    $d
        0x00000408:    ffff8901    ....    DCD    4294936833
        0x0000040c:    50004010    .@.P    DCD    1342193680
    $t
    i.DrvGPIO_Open
    DrvGPIO_Open
        0x00000410:    b570        p.      PUSH     {r4-r6,lr}
        0x00000412:    4604        .F      MOV      r4,r0
        0x00000414:    460b        .F      MOV      r3,r1
        0x00000416:    2b00        .+      CMP      r3,#0
        0x00000418:    db01        ..      BLT      0x41e ; DrvGPIO_Open + 14
        0x0000041a:    2b10        .+      CMP      r3,#0x10
        0x0000041c:    dd01        ..      BLE      0x422 ; DrvGPIO_Open + 18
        0x0000041e:    4818        .H      LDR      r0,[pc,#96] ; [0x480] = 0xffff8901
        0x00000420:    bd70        p.      POP      {r4-r6,pc}
        0x00000422:    01a0        ..      LSLS     r0,r4,#6
        0x00000424:    4d17        .M      LDR      r5,[pc,#92] ; [0x484] = 0x50004000
        0x00000426:    1941        A.      ADDS     r1,r0,r5
        0x00000428:    2a00        .*      CMP      r2,#0
        0x0000042a:    d003        ..      BEQ      0x434 ; DrvGPIO_Open + 36
        0x0000042c:    2a01        .*      CMP      r2,#1
        0x0000042e:    d001        ..      BEQ      0x434 ; DrvGPIO_Open + 36
        0x00000430:    2a02        .*      CMP      r2,#2
        0x00000432:    d117        ..      BNE      0x464 ; DrvGPIO_Open + 84
        0x00000434:    6808        .h      LDR      r0,[r1,#0]
        0x00000436:    005e        ^.      LSLS     r6,r3,#1
        0x00000438:    2503        .%      MOVS     r5,#3
        0x0000043a:    40b5        .@      LSLS     r5,r5,r6
        0x0000043c:    43a8        .C      BICS     r0,r0,r5
        0x0000043e:    6008        .`      STR      r0,[r1,#0]
        0x00000440:    2a01        .*      CMP      r2,#1
        0x00000442:    d106        ..      BNE      0x452 ; DrvGPIO_Open + 66
        0x00000444:    6808        .h      LDR      r0,[r1,#0]
        0x00000446:    005e        ^.      LSLS     r6,r3,#1
        0x00000448:    2501        .%      MOVS     r5,#1
        0x0000044a:    40b5        .@      LSLS     r5,r5,r6
        0x0000044c:    4328        (C      ORRS     r0,r0,r5
        0x0000044e:    6008        .`      STR      r0,[r1,#0]
        0x00000450:    e013        ..      B        0x47a ; DrvGPIO_Open + 106
        0x00000452:    2a02        .*      CMP      r2,#2
        0x00000454:    d111        ..      BNE      0x47a ; DrvGPIO_Open + 106
        0x00000456:    6808        .h      LDR      r0,[r1,#0]
        0x00000458:    005e        ^.      LSLS     r6,r3,#1
        0x0000045a:    2502        .%      MOVS     r5,#2
        0x0000045c:    40b5        .@      LSLS     r5,r5,r6
        0x0000045e:    4328        (C      ORRS     r0,r0,r5
        0x00000460:    6008        .`      STR      r0,[r1,#0]
        0x00000462:    e00a        ..      B        0x47a ; DrvGPIO_Open + 106
        0x00000464:    2a03        .*      CMP      r2,#3
        0x00000466:    d106        ..      BNE      0x476 ; DrvGPIO_Open + 102
        0x00000468:    6808        .h      LDR      r0,[r1,#0]
        0x0000046a:    005e        ^.      LSLS     r6,r3,#1
        0x0000046c:    2503        .%      MOVS     r5,#3
        0x0000046e:    40b5        .@      LSLS     r5,r5,r6
        0x00000470:    4328        (C      ORRS     r0,r0,r5
        0x00000472:    6008        .`      STR      r0,[r1,#0]
        0x00000474:    e001        ..      B        0x47a ; DrvGPIO_Open + 106
        0x00000476:    4802        .H      LDR      r0,[pc,#8] ; [0x480] = 0xffff8901
        0x00000478:    e7d2        ..      B        0x420 ; DrvGPIO_Open + 16
        0x0000047a:    2000        .       MOVS     r0,#0
        0x0000047c:    e7d0        ..      B        0x420 ; DrvGPIO_Open + 16
    $d
        0x0000047e:    0000        ..      DCW    0
        0x00000480:    ffff8901    ....    DCD    4294936833
        0x00000484:    50004000    .@.P    DCD    1342193664
    $t
    i.DrvGPIO_SetBit
    DrvGPIO_SetBit
        0x00000488:    b510        ..      PUSH     {r4,lr}
        0x0000048a:    4603        .F      MOV      r3,r0
        0x0000048c:    2900        .)      CMP      r1,#0
        0x0000048e:    db01        ..      BLT      0x494 ; DrvGPIO_SetBit + 12
        0x00000490:    2910        .)      CMP      r1,#0x10
        0x00000492:    dd01        ..      BLE      0x498 ; DrvGPIO_SetBit + 16
        0x00000494:    4805        .H      LDR      r0,[pc,#20] ; [0x4ac] = 0xffff8901
        0x00000496:    bd10        ..      POP      {r4,pc}
        0x00000498:    0198        ..      LSLS     r0,r3,#6
        0x0000049a:    4c05        .L      LDR      r4,[pc,#20] ; [0x4b0] = 0x50004000
        0x0000049c:    1902        ..      ADDS     r2,r0,r4
        0x0000049e:    6890        .h      LDR      r0,[r2,#8]
        0x000004a0:    2401        .$      MOVS     r4,#1
        0x000004a2:    408c        .@      LSLS     r4,r4,r1
        0x000004a4:    4320         C      ORRS     r0,r0,r4
        0x000004a6:    6090        .`      STR      r0,[r2,#8]
        0x000004a8:    2000        .       MOVS     r0,#0
        0x000004aa:    e7f4        ..      B        0x496 ; DrvGPIO_SetBit + 14
    $d
        0x000004ac:    ffff8901    ....    DCD    4294936833
        0x000004b0:    50004000    .@.P    DCD    1342193664
    $t
    i.DrvSYS_SelectHCLKSource
    DrvSYS_SelectHCLKSource
        0x000004b4:    b510        ..      PUSH     {r4,lr}
        0x000004b6:    4604        .F      MOV      r4,r0
        0x000004b8:    2c07        .,      CMP      r4,#7
        0x000004ba:    dc03        ..      BGT      0x4c4 ; DrvSYS_SelectHCLKSource + 16
        0x000004bc:    2c03        .,      CMP      r4,#3
        0x000004be:    dd03        ..      BLE      0x4c8 ; DrvSYS_SelectHCLKSource + 20
        0x000004c0:    2c07        .,      CMP      r4,#7
        0x000004c2:    da01        ..      BGE      0x4c8 ; DrvSYS_SelectHCLKSource + 20
        0x000004c4:    4807        .H      LDR      r0,[pc,#28] ; [0x4e4] = 0xffff9603
        0x000004c6:    bd10        ..      POP      {r4,pc}
        0x000004c8:    4807        .H      LDR      r0,[pc,#28] ; [0x4e8] = 0x50000200
        0x000004ca:    6900        .i      LDR      r0,[r0,#0x10]
        0x000004cc:    08c0        ..      LSRS     r0,r0,#3
        0x000004ce:    00c0        ..      LSLS     r0,r0,#3
        0x000004d0:    0761        a.      LSLS     r1,r4,#29
        0x000004d2:    0f49        I.      LSRS     r1,r1,#29
        0x000004d4:    4308        .C      ORRS     r0,r0,r1
        0x000004d6:    4904        .I      LDR      r1,[pc,#16] ; [0x4e8] = 0x50000200
        0x000004d8:    6108        .a      STR      r0,[r1,#0x10]
        0x000004da:    f000fc29    ..).    BL       SystemCoreClockUpdate ; 0xd30
        0x000004de:    2000        .       MOVS     r0,#0
        0x000004e0:    e7f1        ..      B        0x4c6 ; DrvSYS_SelectHCLKSource + 18
    $d
        0x000004e2:    0000        ..      DCW    0
        0x000004e4:    ffff9603    ....    DCD    4294940163
        0x000004e8:    50000200    ...P    DCD    1342177792
    $t
    i.DrvSYS_SetClockDivider
    DrvSYS_SetClockDivider
        0x000004ec:    b570        p.      PUSH     {r4-r6,lr}
        0x000004ee:    4604        .F      MOV      r4,r0
        0x000004f0:    460d        .F      MOV      r5,r1
        0x000004f2:    2c00        .,      CMP      r4,#0
        0x000004f4:    d10c        ..      BNE      0x510 ; DrvSYS_SetClockDivider + 36
        0x000004f6:    481d        .H      LDR      r0,[pc,#116] ; [0x56c] = 0x50000200
        0x000004f8:    6980        .i      LDR      r0,[r0,#0x18]
        0x000004fa:    21ff        .!      MOVS     r1,#0xff
        0x000004fc:    0409        ..      LSLS     r1,r1,#16
        0x000004fe:    4388        .C      BICS     r0,r0,r1
        0x00000500:    0429        ).      LSLS     r1,r5,#16
        0x00000502:    22ff        ."      MOVS     r2,#0xff
        0x00000504:    0412        ..      LSLS     r2,r2,#16
        0x00000506:    4011        .@      ANDS     r1,r1,r2
        0x00000508:    4308        .C      ORRS     r0,r0,r1
        0x0000050a:    4918        .I      LDR      r1,[pc,#96] ; [0x56c] = 0x50000200
        0x0000050c:    6188        .a      STR      r0,[r1,#0x18]
        0x0000050e:    e02b        +.      B        0x568 ; DrvSYS_SetClockDivider + 124
        0x00000510:    2c01        .,      CMP      r4,#1
        0x00000512:    d10c        ..      BNE      0x52e ; DrvSYS_SetClockDivider + 66
        0x00000514:    4815        .H      LDR      r0,[pc,#84] ; [0x56c] = 0x50000200
        0x00000516:    6980        .i      LDR      r0,[r0,#0x18]
        0x00000518:    210f        .!      MOVS     r1,#0xf
        0x0000051a:    0209        ..      LSLS     r1,r1,#8
        0x0000051c:    4388        .C      BICS     r0,r0,r1
        0x0000051e:    0229        ).      LSLS     r1,r5,#8
        0x00000520:    220f        ."      MOVS     r2,#0xf
        0x00000522:    0212        ..      LSLS     r2,r2,#8
        0x00000524:    4011        .@      ANDS     r1,r1,r2
        0x00000526:    4308        .C      ORRS     r0,r0,r1
        0x00000528:    4910        .I      LDR      r1,[pc,#64] ; [0x56c] = 0x50000200
        0x0000052a:    6188        .a      STR      r0,[r1,#0x18]
        0x0000052c:    e01c        ..      B        0x568 ; DrvSYS_SetClockDivider + 124
        0x0000052e:    2c02        .,      CMP      r4,#2
        0x00000530:    d10a        ..      BNE      0x548 ; DrvSYS_SetClockDivider + 92
        0x00000532:    480e        .H      LDR      r0,[pc,#56] ; [0x56c] = 0x50000200
        0x00000534:    6980        .i      LDR      r0,[r0,#0x18]
        0x00000536:    21f0        .!      MOVS     r1,#0xf0
        0x00000538:    4388        .C      BICS     r0,r0,r1
        0x0000053a:    0129        ).      LSLS     r1,r5,#4
        0x0000053c:    22f0        ."      MOVS     r2,#0xf0
        0x0000053e:    4011        .@      ANDS     r1,r1,r2
        0x00000540:    4308        .C      ORRS     r0,r0,r1
        0x00000542:    490a        .I      LDR      r1,[pc,#40] ; [0x56c] = 0x50000200
        0x00000544:    6188        .a      STR      r0,[r1,#0x18]
        0x00000546:    e00f        ..      B        0x568 ; DrvSYS_SetClockDivider + 124
        0x00000548:    2c03        .,      CMP      r4,#3
        0x0000054a:    d10b        ..      BNE      0x564 ; DrvSYS_SetClockDivider + 120
        0x0000054c:    4807        .H      LDR      r0,[pc,#28] ; [0x56c] = 0x50000200
        0x0000054e:    6980        .i      LDR      r0,[r0,#0x18]
        0x00000550:    0900        ..      LSRS     r0,r0,#4
        0x00000552:    0100        ..      LSLS     r0,r0,#4
        0x00000554:    0729        ).      LSLS     r1,r5,#28
        0x00000556:    0f09        ..      LSRS     r1,r1,#28
        0x00000558:    4308        .C      ORRS     r0,r0,r1
        0x0000055a:    4904        .I      LDR      r1,[pc,#16] ; [0x56c] = 0x50000200
        0x0000055c:    6188        .a      STR      r0,[r1,#0x18]
        0x0000055e:    f000fbe7    ....    BL       SystemCoreClockUpdate ; 0xd30
        0x00000562:    e001        ..      B        0x568 ; DrvSYS_SetClockDivider + 124
        0x00000564:    4802        .H      LDR      r0,[pc,#8] ; [0x570] = 0xffff9605
        0x00000566:    bd70        p.      POP      {r4-r6,pc}
        0x00000568:    2000        .       MOVS     r0,#0
        0x0000056a:    e7fc        ..      B        0x566 ; DrvSYS_SetClockDivider + 122
    $d
        0x0000056c:    50000200    ...P    DCD    1342177792
        0x00000570:    ffff9605    ....    DCD    4294940165
    $t
    i.DrvSYS_SetOscCtrl
    DrvSYS_SetOscCtrl
        0x00000574:    b510        ..      PUSH     {r4,lr}
        0x00000576:    4602        .F      MOV      r2,r0
        0x00000578:    2a00        .*      CMP      r2,#0
        0x0000057a:    d006        ..      BEQ      0x58a ; DrvSYS_SetOscCtrl + 22
        0x0000057c:    2a01        .*      CMP      r2,#1
        0x0000057e:    d00e        ..      BEQ      0x59e ; DrvSYS_SetOscCtrl + 42
        0x00000580:    2a02        .*      CMP      r2,#2
        0x00000582:    d017        ..      BEQ      0x5b4 ; DrvSYS_SetOscCtrl + 64
        0x00000584:    2a03        .*      CMP      r2,#3
        0x00000586:    d12b        +.      BNE      0x5e0 ; DrvSYS_SetOscCtrl + 108
        0x00000588:    e01f        ..      B        0x5ca ; DrvSYS_SetOscCtrl + 86
        0x0000058a:    4818        .H      LDR      r0,[pc,#96] ; [0x5ec] = 0x50000200
        0x0000058c:    6800        .h      LDR      r0,[r0,#0]
        0x0000058e:    0840        @.      LSRS     r0,r0,#1
        0x00000590:    0040        @.      LSLS     r0,r0,#1
        0x00000592:    07cb        ..      LSLS     r3,r1,#31
        0x00000594:    0fdb        ..      LSRS     r3,r3,#31
        0x00000596:    4318        .C      ORRS     r0,r0,r3
        0x00000598:    4b14        .K      LDR      r3,[pc,#80] ; [0x5ec] = 0x50000200
        0x0000059a:    6018        .`      STR      r0,[r3,#0]
        0x0000059c:    e022        ".      B        0x5e4 ; DrvSYS_SetOscCtrl + 112
        0x0000059e:    4813        .H      LDR      r0,[pc,#76] ; [0x5ec] = 0x50000200
        0x000005a0:    6800        .h      LDR      r0,[r0,#0]
        0x000005a2:    2302        .#      MOVS     r3,#2
        0x000005a4:    4398        .C      BICS     r0,r0,r3
        0x000005a6:    004b        K.      LSLS     r3,r1,#1
        0x000005a8:    2402        .$      MOVS     r4,#2
        0x000005aa:    4023        #@      ANDS     r3,r3,r4
        0x000005ac:    4318        .C      ORRS     r0,r0,r3
        0x000005ae:    4b0f        .K      LDR      r3,[pc,#60] ; [0x5ec] = 0x50000200
        0x000005b0:    6018        .`      STR      r0,[r3,#0]
        0x000005b2:    e017        ..      B        0x5e4 ; DrvSYS_SetOscCtrl + 112
        0x000005b4:    480d        .H      LDR      r0,[pc,#52] ; [0x5ec] = 0x50000200
        0x000005b6:    6800        .h      LDR      r0,[r0,#0]
        0x000005b8:    2304        .#      MOVS     r3,#4
        0x000005ba:    4398        .C      BICS     r0,r0,r3
        0x000005bc:    008b        ..      LSLS     r3,r1,#2
        0x000005be:    2404        .$      MOVS     r4,#4
        0x000005c0:    4023        #@      ANDS     r3,r3,r4
        0x000005c2:    4318        .C      ORRS     r0,r0,r3
        0x000005c4:    4b09        .K      LDR      r3,[pc,#36] ; [0x5ec] = 0x50000200
        0x000005c6:    6018        .`      STR      r0,[r3,#0]
        0x000005c8:    e00c        ..      B        0x5e4 ; DrvSYS_SetOscCtrl + 112
        0x000005ca:    4808        .H      LDR      r0,[pc,#32] ; [0x5ec] = 0x50000200
        0x000005cc:    6800        .h      LDR      r0,[r0,#0]
        0x000005ce:    2308        .#      MOVS     r3,#8
        0x000005d0:    4398        .C      BICS     r0,r0,r3
        0x000005d2:    00cb        ..      LSLS     r3,r1,#3
        0x000005d4:    2408        .$      MOVS     r4,#8
        0x000005d6:    4023        #@      ANDS     r3,r3,r4
        0x000005d8:    4318        .C      ORRS     r0,r0,r3
        0x000005da:    4b04        .K      LDR      r3,[pc,#16] ; [0x5ec] = 0x50000200
        0x000005dc:    6018        .`      STR      r0,[r3,#0]
        0x000005de:    e001        ..      B        0x5e4 ; DrvSYS_SetOscCtrl + 112
        0x000005e0:    4803        .H      LDR      r0,[pc,#12] ; [0x5f0] = 0xffff9603
        0x000005e2:    bd10        ..      POP      {r4,pc}
        0x000005e4:    bf00        ..      NOP      
        0x000005e6:    2000        .       MOVS     r0,#0
        0x000005e8:    e7fb        ..      B        0x5e2 ; DrvSYS_SetOscCtrl + 110
    $d
        0x000005ea:    0000        ..      DCW    0
        0x000005ec:    50000200    ...P    DCD    1342177792
        0x000005f0:    ffff9603    ....    DCD    4294940163
    $t
    i.EINT0_IRQHandler
    EINT0_IRQHandler
        0x000005f4:    b510        ..      PUSH     {r4,lr}
        0x000005f6:    4805        .H      LDR      r0,[pc,#20] ; [0x60c] = 0x4000
        0x000005f8:    4905        .I      LDR      r1,[pc,#20] ; [0x610] = 0x50004040
        0x000005fa:    6208        .b      STR      r0,[r1,#0x20]
        0x000005fc:    4805        .H      LDR      r0,[pc,#20] ; [0x614] = 0x2000006c
        0x000005fe:    6800        .h      LDR      r0,[r0,#0]
        0x00000600:    2800        .(      CMP      r0,#0
        0x00000602:    d002        ..      BEQ      0x60a ; EINT0_IRQHandler + 22
        0x00000604:    4803        .H      LDR      r0,[pc,#12] ; [0x614] = 0x2000006c
        0x00000606:    6800        .h      LDR      r0,[r0,#0]
        0x00000608:    4780        .G      BLX      r0
        0x0000060a:    bd10        ..      POP      {r4,pc}
    $d
        0x0000060c:    00004000    .@..    DCD    16384
        0x00000610:    50004040    @@.P    DCD    1342193728
        0x00000614:    2000006c    l..     DCD    536871020
    $t
    i.EINT1_IRQHandler
    EINT1_IRQHandler
        0x00000618:    b510        ..      PUSH     {r4,lr}
        0x0000061a:    4805        .H      LDR      r0,[pc,#20] ; [0x630] = 0x8000
        0x0000061c:    4905        .I      LDR      r1,[pc,#20] ; [0x634] = 0x50004040
        0x0000061e:    6208        .b      STR      r0,[r1,#0x20]
        0x00000620:    4805        .H      LDR      r0,[pc,#20] ; [0x638] = 0x20000070
        0x00000622:    6800        .h      LDR      r0,[r0,#0]
        0x00000624:    2800        .(      CMP      r0,#0
        0x00000626:    d002        ..      BEQ      0x62e ; EINT1_IRQHandler + 22
        0x00000628:    4803        .H      LDR      r0,[pc,#12] ; [0x638] = 0x20000070
        0x0000062a:    6800        .h      LDR      r0,[r0,#0]
        0x0000062c:    4780        .G      BLX      r0
        0x0000062e:    bd10        ..      POP      {r4,pc}
    $d
        0x00000630:    00008000    ....    DCD    32768
        0x00000634:    50004040    @@.P    DCD    1342193728
        0x00000638:    20000070    p..     DCD    536871024
    $t
    i.GPAB_IRQHandler
    GPAB_IRQHandler
        0x0000063c:    b570        p.      PUSH     {r4-r6,lr}
        0x0000063e:    480b        .H      LDR      r0,[pc,#44] ; [0x66c] = 0x50004000
        0x00000640:    6a05        .j      LDR      r5,[r0,#0x20]
        0x00000642:    480b        .H      LDR      r0,[pc,#44] ; [0x670] = 0x50004040
        0x00000644:    6a04        .j      LDR      r4,[r0,#0x20]
        0x00000646:    490b        .I      LDR      r1,[pc,#44] ; [0x674] = 0xc000
        0x00000648:    4620         F      MOV      r0,r4
        0x0000064a:    4388        .C      BICS     r0,r0,r1
        0x0000064c:    4604        .F      MOV      r4,r0
        0x0000064e:    4807        .H      LDR      r0,[pc,#28] ; [0x66c] = 0x50004000
        0x00000650:    6205        .b      STR      r5,[r0,#0x20]
        0x00000652:    4807        .H      LDR      r0,[pc,#28] ; [0x670] = 0x50004040
        0x00000654:    6204        .b      STR      r4,[r0,#0x20]
        0x00000656:    4808        .H      LDR      r0,[pc,#32] ; [0x678] = 0x20000064
        0x00000658:    6800        .h      LDR      r0,[r0,#0]
        0x0000065a:    2800        .(      CMP      r0,#0
        0x0000065c:    d004        ..      BEQ      0x668 ; GPAB_IRQHandler + 44
        0x0000065e:    4621        !F      MOV      r1,r4
        0x00000660:    4628        (F      MOV      r0,r5
        0x00000662:    4a05        .J      LDR      r2,[pc,#20] ; [0x678] = 0x20000064
        0x00000664:    6812        .h      LDR      r2,[r2,#0]
        0x00000666:    4790        .G      BLX      r2
        0x00000668:    bd70        p.      POP      {r4-r6,pc}
    $d
        0x0000066a:    0000        ..      DCW    0
        0x0000066c:    50004000    .@.P    DCD    1342193664
        0x00000670:    50004040    @@.P    DCD    1342193728
        0x00000674:    0000c000    ....    DCD    49152
        0x00000678:    20000064    d..     DCD    536871012
    $t
    i.GPCDE_IRQHandler
    GPCDE_IRQHandler
        0x0000067c:    b570        p.      PUSH     {r4-r6,lr}
        0x0000067e:    480b        .H      LDR      r0,[pc,#44] ; [0x6ac] = 0x50004080
        0x00000680:    6a04        .j      LDR      r4,[r0,#0x20]
        0x00000682:    480b        .H      LDR      r0,[pc,#44] ; [0x6b0] = 0x500040c0
        0x00000684:    6a05        .j      LDR      r5,[r0,#0x20]
        0x00000686:    480b        .H      LDR      r0,[pc,#44] ; [0x6b4] = 0x50004100
        0x00000688:    6a06        .j      LDR      r6,[r0,#0x20]
        0x0000068a:    4808        .H      LDR      r0,[pc,#32] ; [0x6ac] = 0x50004080
        0x0000068c:    6204        .b      STR      r4,[r0,#0x20]
        0x0000068e:    4808        .H      LDR      r0,[pc,#32] ; [0x6b0] = 0x500040c0
        0x00000690:    6205        .b      STR      r5,[r0,#0x20]
        0x00000692:    4808        .H      LDR      r0,[pc,#32] ; [0x6b4] = 0x50004100
        0x00000694:    6206        .b      STR      r6,[r0,#0x20]
        0x00000696:    4808        .H      LDR      r0,[pc,#32] ; [0x6b8] = 0x20000068
        0x00000698:    6800        .h      LDR      r0,[r0,#0]
        0x0000069a:    2800        .(      CMP      r0,#0
        0x0000069c:    d005        ..      BEQ      0x6aa ; GPCDE_IRQHandler + 46
        0x0000069e:    4632        2F      MOV      r2,r6
        0x000006a0:    4629        )F      MOV      r1,r5
        0x000006a2:    4620         F      MOV      r0,r4
        0x000006a4:    4b04        .K      LDR      r3,[pc,#16] ; [0x6b8] = 0x20000068
        0x000006a6:    681b        .h      LDR      r3,[r3,#0]
        0x000006a8:    4798        .G      BLX      r3
        0x000006aa:    bd70        p.      POP      {r4-r6,pc}
    $d
        0x000006ac:    50004080    .@.P    DCD    1342193792
        0x000006b0:    500040c0    .@.P    DCD    1342193856
        0x000006b4:    50004100    .A.P    DCD    1342193920
        0x000006b8:    20000068    h..     DCD    536871016
    $t
    i.I2C0_IRQHandler
    I2C0_IRQHandler
        0x000006bc:    b510        ..      PUSH     {r4,lr}
        0x000006be:    481b        .H      LDR      r0,[pc,#108] ; [0x72c] = 0x40020000
        0x000006c0:    68c4        .h      LDR      r4,[r0,#0xc]
        0x000006c2:    6940        @i      LDR      r0,[r0,#0x14]
        0x000006c4:    07c0        ..      LSLS     r0,r0,#31
        0x000006c6:    0fc0        ..      LSRS     r0,r0,#31
        0x000006c8:    d00f        ..      BEQ      0x6ea ; I2C0_IRQHandler + 46
        0x000006ca:    4818        .H      LDR      r0,[pc,#96] ; [0x72c] = 0x40020000
        0x000006cc:    6940        @i      LDR      r0,[r0,#0x14]
        0x000006ce:    0840        @.      LSRS     r0,r0,#1
        0x000006d0:    0040        @.      LSLS     r0,r0,#1
        0x000006d2:    1c40        @.      ADDS     r0,r0,#1
        0x000006d4:    4915        .I      LDR      r1,[pc,#84] ; [0x72c] = 0x40020000
        0x000006d6:    6148        Ha      STR      r0,[r1,#0x14]
        0x000006d8:    4815        .H      LDR      r0,[pc,#84] ; [0x730] = 0x200000c4
        0x000006da:    68c0        .h      LDR      r0,[r0,#0xc]
        0x000006dc:    2800        .(      CMP      r0,#0
        0x000006de:    d024        $.      BEQ      0x72a ; I2C0_IRQHandler + 110
        0x000006e0:    4813        .H      LDR      r0,[pc,#76] ; [0x730] = 0x200000c4
        0x000006e2:    68c1        .h      LDR      r1,[r0,#0xc]
        0x000006e4:    4620         F      MOV      r0,r4
        0x000006e6:    4788        .G      BLX      r1
        0x000006e8:    e01f        ..      B        0x72a ; I2C0_IRQHandler + 110
        0x000006ea:    2c00        .,      CMP      r4,#0
        0x000006ec:    d00a        ..      BEQ      0x704 ; I2C0_IRQHandler + 72
        0x000006ee:    2c38        8,      CMP      r4,#0x38
        0x000006f0:    d111        ..      BNE      0x716 ; I2C0_IRQHandler + 90
        0x000006f2:    480f        .H      LDR      r0,[pc,#60] ; [0x730] = 0x200000c4
        0x000006f4:    6840        @h      LDR      r0,[r0,#4]
        0x000006f6:    2800        .(      CMP      r0,#0
        0x000006f8:    d003        ..      BEQ      0x702 ; I2C0_IRQHandler + 70
        0x000006fa:    480d        .H      LDR      r0,[pc,#52] ; [0x730] = 0x200000c4
        0x000006fc:    6841        Ah      LDR      r1,[r0,#4]
        0x000006fe:    4620         F      MOV      r0,r4
        0x00000700:    4788        .G      BLX      r1
        0x00000702:    e011        ..      B        0x728 ; I2C0_IRQHandler + 108
        0x00000704:    480a        .H      LDR      r0,[pc,#40] ; [0x730] = 0x200000c4
        0x00000706:    6880        .h      LDR      r0,[r0,#8]
        0x00000708:    2800        .(      CMP      r0,#0
        0x0000070a:    d003        ..      BEQ      0x714 ; I2C0_IRQHandler + 88
        0x0000070c:    4808        .H      LDR      r0,[pc,#32] ; [0x730] = 0x200000c4
        0x0000070e:    6881        .h      LDR      r1,[r0,#8]
        0x00000710:    4620         F      MOV      r0,r4
        0x00000712:    4788        .G      BLX      r1
        0x00000714:    e008        ..      B        0x728 ; I2C0_IRQHandler + 108
        0x00000716:    4806        .H      LDR      r0,[pc,#24] ; [0x730] = 0x200000c4
        0x00000718:    6800        .h      LDR      r0,[r0,#0]
        0x0000071a:    2800        .(      CMP      r0,#0
        0x0000071c:    d003        ..      BEQ      0x726 ; I2C0_IRQHandler + 106
        0x0000071e:    4804        .H      LDR      r0,[pc,#16] ; [0x730] = 0x200000c4
        0x00000720:    6801        .h      LDR      r1,[r0,#0]
        0x00000722:    4620         F      MOV      r0,r4
        0x00000724:    4788        .G      BLX      r1
        0x00000726:    bf00        ..      NOP      
        0x00000728:    bf00        ..      NOP      
        0x0000072a:    bd10        ..      POP      {r4,pc}
    $d
        0x0000072c:    40020000    ...@    DCD    1073872896
        0x00000730:    200000c4    ...     DCD    536871108
    $t
    i.I2C1_IRQHandler
    I2C1_IRQHandler
        0x00000734:    b510        ..      PUSH     {r4,lr}
        0x00000736:    481b        .H      LDR      r0,[pc,#108] ; [0x7a4] = 0x40120000
        0x00000738:    68c4        .h      LDR      r4,[r0,#0xc]
        0x0000073a:    6940        @i      LDR      r0,[r0,#0x14]
        0x0000073c:    07c0        ..      LSLS     r0,r0,#31
        0x0000073e:    0fc0        ..      LSRS     r0,r0,#31
        0x00000740:    d00f        ..      BEQ      0x762 ; I2C1_IRQHandler + 46
        0x00000742:    4818        .H      LDR      r0,[pc,#96] ; [0x7a4] = 0x40120000
        0x00000744:    6940        @i      LDR      r0,[r0,#0x14]
        0x00000746:    0840        @.      LSRS     r0,r0,#1
        0x00000748:    0040        @.      LSLS     r0,r0,#1
        0x0000074a:    1c40        @.      ADDS     r0,r0,#1
        0x0000074c:    4915        .I      LDR      r1,[pc,#84] ; [0x7a4] = 0x40120000
        0x0000074e:    6148        Ha      STR      r0,[r1,#0x14]
        0x00000750:    4815        .H      LDR      r0,[pc,#84] ; [0x7a8] = 0x200000d4
        0x00000752:    68c0        .h      LDR      r0,[r0,#0xc]
        0x00000754:    2800        .(      CMP      r0,#0
        0x00000756:    d024        $.      BEQ      0x7a2 ; I2C1_IRQHandler + 110
        0x00000758:    4813        .H      LDR      r0,[pc,#76] ; [0x7a8] = 0x200000d4
        0x0000075a:    68c1        .h      LDR      r1,[r0,#0xc]
        0x0000075c:    4620         F      MOV      r0,r4
        0x0000075e:    4788        .G      BLX      r1
        0x00000760:    e01f        ..      B        0x7a2 ; I2C1_IRQHandler + 110
        0x00000762:    2c00        .,      CMP      r4,#0
        0x00000764:    d00a        ..      BEQ      0x77c ; I2C1_IRQHandler + 72
        0x00000766:    2c38        8,      CMP      r4,#0x38
        0x00000768:    d111        ..      BNE      0x78e ; I2C1_IRQHandler + 90
        0x0000076a:    480f        .H      LDR      r0,[pc,#60] ; [0x7a8] = 0x200000d4
        0x0000076c:    6840        @h      LDR      r0,[r0,#4]
        0x0000076e:    2800        .(      CMP      r0,#0
        0x00000770:    d003        ..      BEQ      0x77a ; I2C1_IRQHandler + 70
        0x00000772:    480d        .H      LDR      r0,[pc,#52] ; [0x7a8] = 0x200000d4
        0x00000774:    6841        Ah      LDR      r1,[r0,#4]
        0x00000776:    4620         F      MOV      r0,r4
        0x00000778:    4788        .G      BLX      r1
        0x0000077a:    e011        ..      B        0x7a0 ; I2C1_IRQHandler + 108
        0x0000077c:    480a        .H      LDR      r0,[pc,#40] ; [0x7a8] = 0x200000d4
        0x0000077e:    6880        .h      LDR      r0,[r0,#8]
        0x00000780:    2800        .(      CMP      r0,#0
        0x00000782:    d003        ..      BEQ      0x78c ; I2C1_IRQHandler + 88
        0x00000784:    4808        .H      LDR      r0,[pc,#32] ; [0x7a8] = 0x200000d4
        0x00000786:    6881        .h      LDR      r1,[r0,#8]
        0x00000788:    4620         F      MOV      r0,r4
        0x0000078a:    4788        .G      BLX      r1
        0x0000078c:    e008        ..      B        0x7a0 ; I2C1_IRQHandler + 108
        0x0000078e:    4806        .H      LDR      r0,[pc,#24] ; [0x7a8] = 0x200000d4
        0x00000790:    6800        .h      LDR      r0,[r0,#0]
        0x00000792:    2800        .(      CMP      r0,#0
        0x00000794:    d003        ..      BEQ      0x79e ; I2C1_IRQHandler + 106
        0x00000796:    4804        .H      LDR      r0,[pc,#16] ; [0x7a8] = 0x200000d4
        0x00000798:    6801        .h      LDR      r1,[r0,#0]
        0x0000079a:    4620         F      MOV      r0,r4
        0x0000079c:    4788        .G      BLX      r1
        0x0000079e:    bf00        ..      NOP      
        0x000007a0:    bf00        ..      NOP      
        0x000007a2:    bd10        ..      POP      {r4,pc}
    $d
        0x000007a4:    40120000    ...@    DCD    1074921472
        0x000007a8:    200000d4    ...     DCD    536871124
    $t
    i.Initial_pannel
    Initial_pannel
        0x000007ac:    487d        }H      LDR      r0,[pc,#500] ; [0x9a4] = 0x50000200
        0x000007ae:    6880        .h      LDR      r0,[r0,#8]
        0x000007b0:    2101        .!      MOVS     r1,#1
        0x000007b2:    03c9        ..      LSLS     r1,r1,#15
        0x000007b4:    4388        .C      BICS     r0,r0,r1
        0x000007b6:    1840        @.      ADDS     r0,r0,r1
        0x000007b8:    497a        zI      LDR      r1,[pc,#488] ; [0x9a4] = 0x50000200
        0x000007ba:    6088        .`      STR      r0,[r1,#8]
        0x000007bc:    487a        zH      LDR      r0,[pc,#488] ; [0x9a8] = 0x50000000
        0x000007be:    68c0        .h      LDR      r0,[r0,#0xc]
        0x000007c0:    497a        zI      LDR      r1,[pc,#488] ; [0x9ac] = 0x8000
        0x000007c2:    4388        .C      BICS     r0,r0,r1
        0x000007c4:    1840        @.      ADDS     r0,r0,r1
        0x000007c6:    4978        xI      LDR      r1,[pc,#480] ; [0x9a8] = 0x50000000
        0x000007c8:    60c8        .`      STR      r0,[r1,#0xc]
        0x000007ca:    4608        .F      MOV      r0,r1
        0x000007cc:    68c0        .h      LDR      r0,[r0,#0xc]
        0x000007ce:    4977        wI      LDR      r1,[pc,#476] ; [0x9ac] = 0x8000
        0x000007d0:    4388        .C      BICS     r0,r0,r1
        0x000007d2:    4975        uI      LDR      r1,[pc,#468] ; [0x9a8] = 0x50000000
        0x000007d4:    60c8        .`      STR      r0,[r1,#0xc]
        0x000007d6:    4608        .F      MOV      r0,r1
        0x000007d8:    6bc0        .k      LDR      r0,[r0,#0x3c]
        0x000007da:    4975        uI      LDR      r1,[pc,#468] ; [0x9b0] = 0x100
        0x000007dc:    4388        .C      BICS     r0,r0,r1
        0x000007de:    1840        @.      ADDS     r0,r0,r1
        0x000007e0:    4971        qI      LDR      r1,[pc,#452] ; [0x9a8] = 0x50000000
        0x000007e2:    63c8        .c      STR      r0,[r1,#0x3c]
        0x000007e4:    4608        .F      MOV      r0,r1
        0x000007e6:    6bc0        .k      LDR      r0,[r0,#0x3c]
        0x000007e8:    4972        rI      LDR      r1,[pc,#456] ; [0x9b4] = 0x200
        0x000007ea:    4388        .C      BICS     r0,r0,r1
        0x000007ec:    1840        @.      ADDS     r0,r0,r1
        0x000007ee:    496e        nI      LDR      r1,[pc,#440] ; [0x9a8] = 0x50000000
        0x000007f0:    63c8        .c      STR      r0,[r1,#0x3c]
        0x000007f2:    4608        .F      MOV      r0,r1
        0x000007f4:    6bc0        .k      LDR      r0,[r0,#0x3c]
        0x000007f6:    4970        pI      LDR      r1,[pc,#448] ; [0x9b8] = 0x800
        0x000007f8:    4388        .C      BICS     r0,r0,r1
        0x000007fa:    1840        @.      ADDS     r0,r0,r1
        0x000007fc:    496a        jI      LDR      r1,[pc,#424] ; [0x9a8] = 0x50000000
        0x000007fe:    63c8        .c      STR      r0,[r1,#0x3c]
        0x00000800:    486e        nH      LDR      r0,[pc,#440] ; [0x9bc] = 0x20000010
        0x00000802:    68c0        .h      LDR      r0,[r0,#0xc]
        0x00000804:    6800        .h      LDR      r0,[r0,#0]
        0x00000806:    496c        lI      LDR      r1,[pc,#432] ; [0x9b8] = 0x800
        0x00000808:    4388        .C      BICS     r0,r0,r1
        0x0000080a:    1840        @.      ADDS     r0,r0,r1
        0x0000080c:    496b        kI      LDR      r1,[pc,#428] ; [0x9bc] = 0x20000010
        0x0000080e:    68c9        .h      LDR      r1,[r1,#0xc]
        0x00000810:    6008        .`      STR      r0,[r1,#0]
        0x00000812:    486a        jH      LDR      r0,[pc,#424] ; [0x9bc] = 0x20000010
        0x00000814:    68c0        .h      LDR      r0,[r0,#0xc]
        0x00000816:    6800        .h      LDR      r0,[r0,#0]
        0x00000818:    21f8        .!      MOVS     r1,#0xf8
        0x0000081a:    4388        .C      BICS     r0,r0,r1
        0x0000081c:    3048        H0      ADDS     r0,r0,#0x48
        0x0000081e:    4967        gI      LDR      r1,[pc,#412] ; [0x9bc] = 0x20000010
        0x00000820:    68c9        .h      LDR      r1,[r1,#0xc]
        0x00000822:    6008        .`      STR      r0,[r1,#0]
        0x00000824:    4865        eH      LDR      r0,[pc,#404] ; [0x9bc] = 0x20000010
        0x00000826:    68c0        .h      LDR      r0,[r0,#0xc]
        0x00000828:    6800        .h      LDR      r0,[r0,#0]
        0x0000082a:    2104        .!      MOVS     r1,#4
        0x0000082c:    4388        .C      BICS     r0,r0,r1
        0x0000082e:    1d00        ..      ADDS     r0,r0,#4
        0x00000830:    4962        bI      LDR      r1,[pc,#392] ; [0x9bc] = 0x20000010
        0x00000832:    68c9        .h      LDR      r1,[r1,#0xc]
        0x00000834:    6008        .`      STR      r0,[r1,#0]
        0x00000836:    4861        aH      LDR      r0,[pc,#388] ; [0x9bc] = 0x20000010
        0x00000838:    68c0        .h      LDR      r0,[r0,#0xc]
        0x0000083a:    6840        @h      LDR      r0,[r0,#4]
        0x0000083c:    0c00        ..      LSRS     r0,r0,#16
        0x0000083e:    0400        ..      LSLS     r0,r0,#16
        0x00000840:    1cc0        ..      ADDS     r0,r0,#3
        0x00000842:    495e        ^I      LDR      r1,[pc,#376] ; [0x9bc] = 0x20000010
        0x00000844:    68c9        .h      LDR      r1,[r1,#0xc]
        0x00000846:    6048        H`      STR      r0,[r1,#4]
        0x00000848:    485c        \H      LDR      r0,[pc,#368] ; [0x9bc] = 0x20000010
        0x0000084a:    68c0        .h      LDR      r0,[r0,#0xc]
        0x0000084c:    6880        .h      LDR      r0,[r0,#8]
        0x0000084e:    0880        ..      LSRS     r0,r0,#2
        0x00000850:    0080        ..      LSLS     r0,r0,#2
        0x00000852:    1c40        @.      ADDS     r0,r0,#1
        0x00000854:    4959        YI      LDR      r1,[pc,#356] ; [0x9bc] = 0x20000010
        0x00000856:    68c9        .h      LDR      r1,[r1,#0xc]
        0x00000858:    6088        .`      STR      r0,[r1,#8]
        0x0000085a:    20eb        .       MOVS     r0,#0xeb
        0x0000085c:    4957        WI      LDR      r1,[pc,#348] ; [0x9bc] = 0x20000010
        0x0000085e:    68c9        .h      LDR      r1,[r1,#0xc]
        0x00000860:    6208        .b      STR      r0,[r1,#0x20]
        0x00000862:    4856        VH      LDR      r0,[pc,#344] ; [0x9bc] = 0x20000010
        0x00000864:    68c0        .h      LDR      r0,[r0,#0xc]
        0x00000866:    6800        .h      LDR      r0,[r0,#0]
        0x00000868:    0840        @.      LSRS     r0,r0,#1
        0x0000086a:    0040        @.      LSLS     r0,r0,#1
        0x0000086c:    1c40        @.      ADDS     r0,r0,#1
        0x0000086e:    4953        SI      LDR      r1,[pc,#332] ; [0x9bc] = 0x20000010
        0x00000870:    68c9        .h      LDR      r1,[r1,#0xc]
        0x00000872:    6008        .`      STR      r0,[r1,#0]
        0x00000874:    bf00        ..      NOP      
        0x00000876:    4851        QH      LDR      r0,[pc,#324] ; [0x9bc] = 0x20000010
        0x00000878:    68c0        .h      LDR      r0,[r0,#0xc]
        0x0000087a:    6800        .h      LDR      r0,[r0,#0]
        0x0000087c:    07c0        ..      LSLS     r0,r0,#31
        0x0000087e:    0fc0        ..      LSRS     r0,r0,#31
        0x00000880:    2801        .(      CMP      r0,#1
        0x00000882:    d0f8        ..      BEQ      0x876 ; Initial_pannel + 202
        0x00000884:    484d        MH      LDR      r0,[pc,#308] ; [0x9bc] = 0x20000010
        0x00000886:    68c0        .h      LDR      r0,[r0,#0xc]
        0x00000888:    6880        .h      LDR      r0,[r0,#8]
        0x0000088a:    0880        ..      LSRS     r0,r0,#2
        0x0000088c:    0080        ..      LSLS     r0,r0,#2
        0x0000088e:    494b        KI      LDR      r1,[pc,#300] ; [0x9bc] = 0x20000010
        0x00000890:    68c9        .h      LDR      r1,[r1,#0xc]
        0x00000892:    6088        .`      STR      r0,[r1,#8]
        0x00000894:    4849        IH      LDR      r0,[pc,#292] ; [0x9bc] = 0x20000010
        0x00000896:    68c0        .h      LDR      r0,[r0,#0xc]
        0x00000898:    6880        .h      LDR      r0,[r0,#8]
        0x0000089a:    0880        ..      LSRS     r0,r0,#2
        0x0000089c:    0080        ..      LSLS     r0,r0,#2
        0x0000089e:    1c40        @.      ADDS     r0,r0,#1
        0x000008a0:    4946        FI      LDR      r1,[pc,#280] ; [0x9bc] = 0x20000010
        0x000008a2:    68c9        .h      LDR      r1,[r1,#0xc]
        0x000008a4:    6088        .`      STR      r0,[r1,#8]
        0x000008a6:    2081        .       MOVS     r0,#0x81
        0x000008a8:    4944        DI      LDR      r1,[pc,#272] ; [0x9bc] = 0x20000010
        0x000008aa:    68c9        .h      LDR      r1,[r1,#0xc]
        0x000008ac:    6208        .b      STR      r0,[r1,#0x20]
        0x000008ae:    4843        CH      LDR      r0,[pc,#268] ; [0x9bc] = 0x20000010
        0x000008b0:    68c0        .h      LDR      r0,[r0,#0xc]
        0x000008b2:    6800        .h      LDR      r0,[r0,#0]
        0x000008b4:    0840        @.      LSRS     r0,r0,#1
        0x000008b6:    0040        @.      LSLS     r0,r0,#1
        0x000008b8:    1c40        @.      ADDS     r0,r0,#1
        0x000008ba:    4940        @I      LDR      r1,[pc,#256] ; [0x9bc] = 0x20000010
        0x000008bc:    68c9        .h      LDR      r1,[r1,#0xc]
        0x000008be:    6008        .`      STR      r0,[r1,#0]
        0x000008c0:    bf00        ..      NOP      
        0x000008c2:    483e        >H      LDR      r0,[pc,#248] ; [0x9bc] = 0x20000010
        0x000008c4:    68c0        .h      LDR      r0,[r0,#0xc]
        0x000008c6:    6800        .h      LDR      r0,[r0,#0]
        0x000008c8:    07c0        ..      LSLS     r0,r0,#31
        0x000008ca:    0fc0        ..      LSRS     r0,r0,#31
        0x000008cc:    2801        .(      CMP      r0,#1
        0x000008ce:    d0f8        ..      BEQ      0x8c2 ; Initial_pannel + 278
        0x000008d0:    20a0        .       MOVS     r0,#0xa0
        0x000008d2:    493a        :I      LDR      r1,[pc,#232] ; [0x9bc] = 0x20000010
        0x000008d4:    68c9        .h      LDR      r1,[r1,#0xc]
        0x000008d6:    6208        .b      STR      r0,[r1,#0x20]
        0x000008d8:    4838        8H      LDR      r0,[pc,#224] ; [0x9bc] = 0x20000010
        0x000008da:    68c0        .h      LDR      r0,[r0,#0xc]
        0x000008dc:    6800        .h      LDR      r0,[r0,#0]
        0x000008de:    0840        @.      LSRS     r0,r0,#1
        0x000008e0:    0040        @.      LSLS     r0,r0,#1
        0x000008e2:    1c40        @.      ADDS     r0,r0,#1
        0x000008e4:    4935        5I      LDR      r1,[pc,#212] ; [0x9bc] = 0x20000010
        0x000008e6:    68c9        .h      LDR      r1,[r1,#0xc]
        0x000008e8:    6008        .`      STR      r0,[r1,#0]
        0x000008ea:    bf00        ..      NOP      
        0x000008ec:    4833        3H      LDR      r0,[pc,#204] ; [0x9bc] = 0x20000010
        0x000008ee:    68c0        .h      LDR      r0,[r0,#0xc]
        0x000008f0:    6800        .h      LDR      r0,[r0,#0]
        0x000008f2:    07c0        ..      LSLS     r0,r0,#31
        0x000008f4:    0fc0        ..      LSRS     r0,r0,#31
        0x000008f6:    2801        .(      CMP      r0,#1
        0x000008f8:    d0f8        ..      BEQ      0x8ec ; Initial_pannel + 320
        0x000008fa:    4830        0H      LDR      r0,[pc,#192] ; [0x9bc] = 0x20000010
        0x000008fc:    68c0        .h      LDR      r0,[r0,#0xc]
        0x000008fe:    6880        .h      LDR      r0,[r0,#8]
        0x00000900:    0880        ..      LSRS     r0,r0,#2
        0x00000902:    0080        ..      LSLS     r0,r0,#2
        0x00000904:    492d        -I      LDR      r1,[pc,#180] ; [0x9bc] = 0x20000010
        0x00000906:    68c9        .h      LDR      r1,[r1,#0xc]
        0x00000908:    6088        .`      STR      r0,[r1,#8]
        0x0000090a:    482c        ,H      LDR      r0,[pc,#176] ; [0x9bc] = 0x20000010
        0x0000090c:    68c0        .h      LDR      r0,[r0,#0xc]
        0x0000090e:    6880        .h      LDR      r0,[r0,#8]
        0x00000910:    0880        ..      LSRS     r0,r0,#2
        0x00000912:    0080        ..      LSLS     r0,r0,#2
        0x00000914:    1c40        @.      ADDS     r0,r0,#1
        0x00000916:    4929        )I      LDR      r1,[pc,#164] ; [0x9bc] = 0x20000010
        0x00000918:    68c9        .h      LDR      r1,[r1,#0xc]
        0x0000091a:    6088        .`      STR      r0,[r1,#8]
        0x0000091c:    20c0        .       MOVS     r0,#0xc0
        0x0000091e:    4927        'I      LDR      r1,[pc,#156] ; [0x9bc] = 0x20000010
        0x00000920:    68c9        .h      LDR      r1,[r1,#0xc]
        0x00000922:    6208        .b      STR      r0,[r1,#0x20]
        0x00000924:    4825        %H      LDR      r0,[pc,#148] ; [0x9bc] = 0x20000010
        0x00000926:    68c0        .h      LDR      r0,[r0,#0xc]
        0x00000928:    6800        .h      LDR      r0,[r0,#0]
        0x0000092a:    0840        @.      LSRS     r0,r0,#1
        0x0000092c:    0040        @.      LSLS     r0,r0,#1
        0x0000092e:    1c40        @.      ADDS     r0,r0,#1
        0x00000930:    4922        "I      LDR      r1,[pc,#136] ; [0x9bc] = 0x20000010
        0x00000932:    68c9        .h      LDR      r1,[r1,#0xc]
        0x00000934:    6008        .`      STR      r0,[r1,#0]
        0x00000936:    bf00        ..      NOP      
        0x00000938:    4820         H      LDR      r0,[pc,#128] ; [0x9bc] = 0x20000010
        0x0000093a:    68c0        .h      LDR      r0,[r0,#0xc]
        0x0000093c:    6800        .h      LDR      r0,[r0,#0]
        0x0000093e:    07c0        ..      LSLS     r0,r0,#31
        0x00000940:    0fc0        ..      LSRS     r0,r0,#31
        0x00000942:    2801        .(      CMP      r0,#1
        0x00000944:    d0f8        ..      BEQ      0x938 ; Initial_pannel + 396
        0x00000946:    481d        .H      LDR      r0,[pc,#116] ; [0x9bc] = 0x20000010
        0x00000948:    68c0        .h      LDR      r0,[r0,#0xc]
        0x0000094a:    6880        .h      LDR      r0,[r0,#8]
        0x0000094c:    0880        ..      LSRS     r0,r0,#2
        0x0000094e:    0080        ..      LSLS     r0,r0,#2
        0x00000950:    491a        .I      LDR      r1,[pc,#104] ; [0x9bc] = 0x20000010
        0x00000952:    68c9        .h      LDR      r1,[r1,#0xc]
        0x00000954:    6088        .`      STR      r0,[r1,#8]
        0x00000956:    4819        .H      LDR      r0,[pc,#100] ; [0x9bc] = 0x20000010
        0x00000958:    68c0        .h      LDR      r0,[r0,#0xc]
        0x0000095a:    6880        .h      LDR      r0,[r0,#8]
        0x0000095c:    0880        ..      LSRS     r0,r0,#2
        0x0000095e:    0080        ..      LSLS     r0,r0,#2
        0x00000960:    1c40        @.      ADDS     r0,r0,#1
        0x00000962:    4916        .I      LDR      r1,[pc,#88] ; [0x9bc] = 0x20000010
        0x00000964:    68c9        .h      LDR      r1,[r1,#0xc]
        0x00000966:    6088        .`      STR      r0,[r1,#8]
        0x00000968:    20af        .       MOVS     r0,#0xaf
        0x0000096a:    4914        .I      LDR      r1,[pc,#80] ; [0x9bc] = 0x20000010
        0x0000096c:    68c9        .h      LDR      r1,[r1,#0xc]
        0x0000096e:    6208        .b      STR      r0,[r1,#0x20]
        0x00000970:    4812        .H      LDR      r0,[pc,#72] ; [0x9bc] = 0x20000010
        0x00000972:    68c0        .h      LDR      r0,[r0,#0xc]
        0x00000974:    6800        .h      LDR      r0,[r0,#0]
        0x00000976:    0840        @.      LSRS     r0,r0,#1
        0x00000978:    0040        @.      LSLS     r0,r0,#1
        0x0000097a:    1c40        @.      ADDS     r0,r0,#1
        0x0000097c:    490f        .I      LDR      r1,[pc,#60] ; [0x9bc] = 0x20000010
        0x0000097e:    68c9        .h      LDR      r1,[r1,#0xc]
        0x00000980:    6008        .`      STR      r0,[r1,#0]
        0x00000982:    bf00        ..      NOP      
        0x00000984:    480d        .H      LDR      r0,[pc,#52] ; [0x9bc] = 0x20000010
        0x00000986:    68c0        .h      LDR      r0,[r0,#0xc]
        0x00000988:    6800        .h      LDR      r0,[r0,#0]
        0x0000098a:    07c0        ..      LSLS     r0,r0,#31
        0x0000098c:    0fc0        ..      LSRS     r0,r0,#31
        0x0000098e:    2801        .(      CMP      r0,#1
        0x00000990:    d0f8        ..      BEQ      0x984 ; Initial_pannel + 472
        0x00000992:    480a        .H      LDR      r0,[pc,#40] ; [0x9bc] = 0x20000010
        0x00000994:    68c0        .h      LDR      r0,[r0,#0xc]
        0x00000996:    6880        .h      LDR      r0,[r0,#8]
        0x00000998:    0880        ..      LSRS     r0,r0,#2
        0x0000099a:    0080        ..      LSLS     r0,r0,#2
        0x0000099c:    4907        .I      LDR      r1,[pc,#28] ; [0x9bc] = 0x20000010
        0x0000099e:    68c9        .h      LDR      r1,[r1,#0xc]
        0x000009a0:    6088        .`      STR      r0,[r1,#8]
        0x000009a2:    4770        pG      BX       lr
    $d
        0x000009a4:    50000200    ...P    DCD    1342177792
        0x000009a8:    50000000    ...P    DCD    1342177280
        0x000009ac:    00008000    ....    DCD    32768
        0x000009b0:    00000100    ....    DCD    256
        0x000009b4:    00000200    ....    DCD    512
        0x000009b8:    00000800    ....    DCD    2048
        0x000009bc:    20000010    ...     DCD    536870928
    $t
    i.OpenKeyPad
    OpenKeyPad
        0x000009c0:    b510        ..      PUSH     {r4,lr}
        0x000009c2:    2400        .$      MOVS     r4,#0
        0x000009c4:    e006        ..      B        0x9d4 ; OpenKeyPad + 20
        0x000009c6:    2203        ."      MOVS     r2,#3
        0x000009c8:    4621        !F      MOV      r1,r4
        0x000009ca:    2000        .       MOVS     r0,#0
        0x000009cc:    f7fffd20    .. .    BL       DrvGPIO_Open ; 0x410
        0x000009d0:    1c60        `.      ADDS     r0,r4,#1
        0x000009d2:    b2c4        ..      UXTB     r4,r0
        0x000009d4:    2c06        .,      CMP      r4,#6
        0x000009d6:    dbf6        ..      BLT      0x9c6 ; OpenKeyPad + 6
        0x000009d8:    bd10        ..      POP      {r4,pc}
        0x000009da:    0000        ..      MOVS     r0,r0
    i.PWRWU_IRQHandler
    PWRWU_IRQHandler
        0x000009dc:    b510        ..      PUSH     {r4,lr}
        0x000009de:    4807        .H      LDR      r0,[pc,#28] ; [0x9fc] = 0x50000200
        0x000009e0:    6800        .h      LDR      r0,[r0,#0]
        0x000009e2:    2140        @!      MOVS     r1,#0x40
        0x000009e4:    4388        .C      BICS     r0,r0,r1
        0x000009e6:    3040        @0      ADDS     r0,r0,#0x40
        0x000009e8:    4904        .I      LDR      r1,[pc,#16] ; [0x9fc] = 0x50000200
        0x000009ea:    6008        .`      STR      r0,[r1,#0]
        0x000009ec:    4804        .H      LDR      r0,[pc,#16] ; [0xa00] = 0x20000054
        0x000009ee:    6800        .h      LDR      r0,[r0,#0]
        0x000009f0:    2800        .(      CMP      r0,#0
        0x000009f2:    d002        ..      BEQ      0x9fa ; PWRWU_IRQHandler + 30
        0x000009f4:    4802        .H      LDR      r0,[pc,#8] ; [0xa00] = 0x20000054
        0x000009f6:    6800        .h      LDR      r0,[r0,#0]
        0x000009f8:    4780        .G      BLX      r0
        0x000009fa:    bd10        ..      POP      {r4,pc}
    $d
        0x000009fc:    50000200    ...P    DCD    1342177792
        0x00000a00:    20000054    T..     DCD    536870996
    $t
    i.SPI0_IRQHandler
    SPI0_IRQHandler
        0x00000a04:    b510        ..      PUSH     {r4,lr}
        0x00000a06:    4816        .H      LDR      r0,[pc,#88] ; [0xa60] = 0x40030000
        0x00000a08:    6800        .h      LDR      r0,[r0,#0]
        0x00000a0a:    03c0        ..      LSLS     r0,r0,#15
        0x00000a0c:    0fc0        ..      LSRS     r0,r0,#31
        0x00000a0e:    2801        .(      CMP      r0,#1
        0x00000a10:    d10f        ..      BNE      0xa32 ; SPI0_IRQHandler + 46
        0x00000a12:    4813        .H      LDR      r0,[pc,#76] ; [0xa60] = 0x40030000
        0x00000a14:    6800        .h      LDR      r0,[r0,#0]
        0x00000a16:    2101        .!      MOVS     r1,#1
        0x00000a18:    0409        ..      LSLS     r1,r1,#16
        0x00000a1a:    4388        .C      BICS     r0,r0,r1
        0x00000a1c:    1840        @.      ADDS     r0,r0,r1
        0x00000a1e:    4910        .I      LDR      r1,[pc,#64] ; [0xa60] = 0x40030000
        0x00000a20:    6008        .`      STR      r0,[r1,#0]
        0x00000a22:    4810        .H      LDR      r0,[pc,#64] ; [0xa64] = 0x20000074
        0x00000a24:    6840        @h      LDR      r0,[r0,#4]
        0x00000a26:    2800        .(      CMP      r0,#0
        0x00000a28:    d003        ..      BEQ      0xa32 ; SPI0_IRQHandler + 46
        0x00000a2a:    4a0e        .J      LDR      r2,[pc,#56] ; [0xa64] = 0x20000074
        0x00000a2c:    6890        .h      LDR      r0,[r2,#8]
        0x00000a2e:    6851        Qh      LDR      r1,[r2,#4]
        0x00000a30:    4788        .G      BLX      r1
        0x00000a32:    480b        .H      LDR      r0,[pc,#44] ; [0xa60] = 0x40030000
        0x00000a34:    6bc0        .k      LDR      r0,[r0,#0x3c]
        0x00000a36:    0500        ..      LSLS     r0,r0,#20
        0x00000a38:    0fc0        ..      LSRS     r0,r0,#31
        0x00000a3a:    2801        .(      CMP      r0,#1
        0x00000a3c:    d10f        ..      BNE      0xa5e ; SPI0_IRQHandler + 90
        0x00000a3e:    4808        .H      LDR      r0,[pc,#32] ; [0xa60] = 0x40030000
        0x00000a40:    6bc0        .k      LDR      r0,[r0,#0x3c]
        0x00000a42:    2101        .!      MOVS     r1,#1
        0x00000a44:    02c9        ..      LSLS     r1,r1,#11
        0x00000a46:    4388        .C      BICS     r0,r0,r1
        0x00000a48:    1840        @.      ADDS     r0,r0,r1
        0x00000a4a:    4905        .I      LDR      r1,[pc,#20] ; [0xa60] = 0x40030000
        0x00000a4c:    63c8        .c      STR      r0,[r1,#0x3c]
        0x00000a4e:    4805        .H      LDR      r0,[pc,#20] ; [0xa64] = 0x20000074
        0x00000a50:    68c0        .h      LDR      r0,[r0,#0xc]
        0x00000a52:    2800        .(      CMP      r0,#0
        0x00000a54:    d003        ..      BEQ      0xa5e ; SPI0_IRQHandler + 90
        0x00000a56:    4a03        .J      LDR      r2,[pc,#12] ; [0xa64] = 0x20000074
        0x00000a58:    6910        .i      LDR      r0,[r2,#0x10]
        0x00000a5a:    68d1        .h      LDR      r1,[r2,#0xc]
        0x00000a5c:    4788        .G      BLX      r1
        0x00000a5e:    bd10        ..      POP      {r4,pc}
    $d
        0x00000a60:    40030000    ...@    DCD    1073938432
        0x00000a64:    20000074    t..     DCD    536871028
    $t
    i.SPI1_IRQHandler
    SPI1_IRQHandler
        0x00000a68:    b510        ..      PUSH     {r4,lr}
        0x00000a6a:    4816        .H      LDR      r0,[pc,#88] ; [0xac4] = 0x40034000
        0x00000a6c:    6800        .h      LDR      r0,[r0,#0]
        0x00000a6e:    03c0        ..      LSLS     r0,r0,#15
        0x00000a70:    0fc0        ..      LSRS     r0,r0,#31
        0x00000a72:    2801        .(      CMP      r0,#1
        0x00000a74:    d10f        ..      BNE      0xa96 ; SPI1_IRQHandler + 46
        0x00000a76:    4813        .H      LDR      r0,[pc,#76] ; [0xac4] = 0x40034000
        0x00000a78:    6800        .h      LDR      r0,[r0,#0]
        0x00000a7a:    2101        .!      MOVS     r1,#1
        0x00000a7c:    0409        ..      LSLS     r1,r1,#16
        0x00000a7e:    4388        .C      BICS     r0,r0,r1
        0x00000a80:    1840        @.      ADDS     r0,r0,r1
        0x00000a82:    4910        .I      LDR      r1,[pc,#64] ; [0xac4] = 0x40034000
        0x00000a84:    6008        .`      STR      r0,[r1,#0]
        0x00000a86:    4810        .H      LDR      r0,[pc,#64] ; [0xac8] = 0x20000074
        0x00000a88:    6980        .i      LDR      r0,[r0,#0x18]
        0x00000a8a:    2800        .(      CMP      r0,#0
        0x00000a8c:    d003        ..      BEQ      0xa96 ; SPI1_IRQHandler + 46
        0x00000a8e:    4a0e        .J      LDR      r2,[pc,#56] ; [0xac8] = 0x20000074
        0x00000a90:    69d0        .i      LDR      r0,[r2,#0x1c]
        0x00000a92:    6991        .i      LDR      r1,[r2,#0x18]
        0x00000a94:    4788        .G      BLX      r1
        0x00000a96:    480b        .H      LDR      r0,[pc,#44] ; [0xac4] = 0x40034000
        0x00000a98:    6bc0        .k      LDR      r0,[r0,#0x3c]
        0x00000a9a:    0500        ..      LSLS     r0,r0,#20
        0x00000a9c:    0fc0        ..      LSRS     r0,r0,#31
        0x00000a9e:    2801        .(      CMP      r0,#1
        0x00000aa0:    d10f        ..      BNE      0xac2 ; SPI1_IRQHandler + 90
        0x00000aa2:    4808        .H      LDR      r0,[pc,#32] ; [0xac4] = 0x40034000
        0x00000aa4:    6bc0        .k      LDR      r0,[r0,#0x3c]
        0x00000aa6:    2101        .!      MOVS     r1,#1
        0x00000aa8:    02c9        ..      LSLS     r1,r1,#11
        0x00000aaa:    4388        .C      BICS     r0,r0,r1
        0x00000aac:    1840        @.      ADDS     r0,r0,r1
        0x00000aae:    4905        .I      LDR      r1,[pc,#20] ; [0xac4] = 0x40034000
        0x00000ab0:    63c8        .c      STR      r0,[r1,#0x3c]
        0x00000ab2:    4805        .H      LDR      r0,[pc,#20] ; [0xac8] = 0x20000074
        0x00000ab4:    6a00        .j      LDR      r0,[r0,#0x20]
        0x00000ab6:    2800        .(      CMP      r0,#0
        0x00000ab8:    d003        ..      BEQ      0xac2 ; SPI1_IRQHandler + 90
        0x00000aba:    4a03        .J      LDR      r2,[pc,#12] ; [0xac8] = 0x20000074
        0x00000abc:    6a50        Pj      LDR      r0,[r2,#0x24]
        0x00000abe:    6a11        .j      LDR      r1,[r2,#0x20]
        0x00000ac0:    4788        .G      BLX      r1
        0x00000ac2:    bd10        ..      POP      {r4,pc}
    $d
        0x00000ac4:    40034000    .@.@    DCD    1073954816
        0x00000ac8:    20000074    t..     DCD    536871028
    $t
    i.SPI2_IRQHandler
    SPI2_IRQHandler
        0x00000acc:    b510        ..      PUSH     {r4,lr}
        0x00000ace:    4816        .H      LDR      r0,[pc,#88] ; [0xb28] = 0x40130000
        0x00000ad0:    6800        .h      LDR      r0,[r0,#0]
        0x00000ad2:    03c0        ..      LSLS     r0,r0,#15
        0x00000ad4:    0fc0        ..      LSRS     r0,r0,#31
        0x00000ad6:    2801        .(      CMP      r0,#1
        0x00000ad8:    d10f        ..      BNE      0xafa ; SPI2_IRQHandler + 46
        0x00000ada:    4813        .H      LDR      r0,[pc,#76] ; [0xb28] = 0x40130000
        0x00000adc:    6800        .h      LDR      r0,[r0,#0]
        0x00000ade:    2101        .!      MOVS     r1,#1
        0x00000ae0:    0409        ..      LSLS     r1,r1,#16
        0x00000ae2:    4388        .C      BICS     r0,r0,r1
        0x00000ae4:    1840        @.      ADDS     r0,r0,r1
        0x00000ae6:    4910        .I      LDR      r1,[pc,#64] ; [0xb28] = 0x40130000
        0x00000ae8:    6008        .`      STR      r0,[r1,#0]
        0x00000aea:    4810        .H      LDR      r0,[pc,#64] ; [0xb2c] = 0x20000074
        0x00000aec:    6ac0        .j      LDR      r0,[r0,#0x2c]
        0x00000aee:    2800        .(      CMP      r0,#0
        0x00000af0:    d003        ..      BEQ      0xafa ; SPI2_IRQHandler + 46
        0x00000af2:    4a0e        .J      LDR      r2,[pc,#56] ; [0xb2c] = 0x20000074
        0x00000af4:    6b10        .k      LDR      r0,[r2,#0x30]
        0x00000af6:    6ad1        .j      LDR      r1,[r2,#0x2c]
        0x00000af8:    4788        .G      BLX      r1
        0x00000afa:    480b        .H      LDR      r0,[pc,#44] ; [0xb28] = 0x40130000
        0x00000afc:    6bc0        .k      LDR      r0,[r0,#0x3c]
        0x00000afe:    0500        ..      LSLS     r0,r0,#20
        0x00000b00:    0fc0        ..      LSRS     r0,r0,#31
        0x00000b02:    2801        .(      CMP      r0,#1
        0x00000b04:    d10f        ..      BNE      0xb26 ; SPI2_IRQHandler + 90
        0x00000b06:    4808        .H      LDR      r0,[pc,#32] ; [0xb28] = 0x40130000
        0x00000b08:    6bc0        .k      LDR      r0,[r0,#0x3c]
        0x00000b0a:    2101        .!      MOVS     r1,#1
        0x00000b0c:    02c9        ..      LSLS     r1,r1,#11
        0x00000b0e:    4388        .C      BICS     r0,r0,r1
        0x00000b10:    1840        @.      ADDS     r0,r0,r1
        0x00000b12:    4905        .I      LDR      r1,[pc,#20] ; [0xb28] = 0x40130000
        0x00000b14:    63c8        .c      STR      r0,[r1,#0x3c]
        0x00000b16:    4805        .H      LDR      r0,[pc,#20] ; [0xb2c] = 0x20000074
        0x00000b18:    6b40        @k      LDR      r0,[r0,#0x34]
        0x00000b1a:    2800        .(      CMP      r0,#0
        0x00000b1c:    d003        ..      BEQ      0xb26 ; SPI2_IRQHandler + 90
        0x00000b1e:    4a03        .J      LDR      r2,[pc,#12] ; [0xb2c] = 0x20000074
        0x00000b20:    6b90        .k      LDR      r0,[r2,#0x38]
        0x00000b22:    6b51        Qk      LDR      r1,[r2,#0x34]
        0x00000b24:    4788        .G      BLX      r1
        0x00000b26:    bd10        ..      POP      {r4,pc}
    $d
        0x00000b28:    40130000    ...@    DCD    1074987008
        0x00000b2c:    20000074    t..     DCD    536871028
    $t
    i.SPI3_IRQHandler
    SPI3_IRQHandler
        0x00000b30:    b510        ..      PUSH     {r4,lr}
        0x00000b32:    4816        .H      LDR      r0,[pc,#88] ; [0xb8c] = 0x40134000
        0x00000b34:    6800        .h      LDR      r0,[r0,#0]
        0x00000b36:    03c0        ..      LSLS     r0,r0,#15
        0x00000b38:    0fc0        ..      LSRS     r0,r0,#31
        0x00000b3a:    2801        .(      CMP      r0,#1
        0x00000b3c:    d10f        ..      BNE      0xb5e ; SPI3_IRQHandler + 46
        0x00000b3e:    4813        .H      LDR      r0,[pc,#76] ; [0xb8c] = 0x40134000
        0x00000b40:    6800        .h      LDR      r0,[r0,#0]
        0x00000b42:    2101        .!      MOVS     r1,#1
        0x00000b44:    0409        ..      LSLS     r1,r1,#16
        0x00000b46:    4388        .C      BICS     r0,r0,r1
        0x00000b48:    1840        @.      ADDS     r0,r0,r1
        0x00000b4a:    4910        .I      LDR      r1,[pc,#64] ; [0xb8c] = 0x40134000
        0x00000b4c:    6008        .`      STR      r0,[r1,#0]
        0x00000b4e:    4810        .H      LDR      r0,[pc,#64] ; [0xb90] = 0x20000074
        0x00000b50:    6c00        .l      LDR      r0,[r0,#0x40]
        0x00000b52:    2800        .(      CMP      r0,#0
        0x00000b54:    d003        ..      BEQ      0xb5e ; SPI3_IRQHandler + 46
        0x00000b56:    4a0e        .J      LDR      r2,[pc,#56] ; [0xb90] = 0x20000074
        0x00000b58:    6c50        Pl      LDR      r0,[r2,#0x44]
        0x00000b5a:    6c11        .l      LDR      r1,[r2,#0x40]
        0x00000b5c:    4788        .G      BLX      r1
        0x00000b5e:    480b        .H      LDR      r0,[pc,#44] ; [0xb8c] = 0x40134000
        0x00000b60:    6bc0        .k      LDR      r0,[r0,#0x3c]
        0x00000b62:    0500        ..      LSLS     r0,r0,#20
        0x00000b64:    0fc0        ..      LSRS     r0,r0,#31
        0x00000b66:    2801        .(      CMP      r0,#1
        0x00000b68:    d10f        ..      BNE      0xb8a ; SPI3_IRQHandler + 90
        0x00000b6a:    4808        .H      LDR      r0,[pc,#32] ; [0xb8c] = 0x40134000
        0x00000b6c:    6bc0        .k      LDR      r0,[r0,#0x3c]
        0x00000b6e:    2101        .!      MOVS     r1,#1
        0x00000b70:    02c9        ..      LSLS     r1,r1,#11
        0x00000b72:    4388        .C      BICS     r0,r0,r1
        0x00000b74:    1840        @.      ADDS     r0,r0,r1
        0x00000b76:    4905        .I      LDR      r1,[pc,#20] ; [0xb8c] = 0x40134000
        0x00000b78:    63c8        .c      STR      r0,[r1,#0x3c]
        0x00000b7a:    4805        .H      LDR      r0,[pc,#20] ; [0xb90] = 0x20000074
        0x00000b7c:    6c80        .l      LDR      r0,[r0,#0x48]
        0x00000b7e:    2800        .(      CMP      r0,#0
        0x00000b80:    d003        ..      BEQ      0xb8a ; SPI3_IRQHandler + 90
        0x00000b82:    4a03        .J      LDR      r2,[pc,#12] ; [0xb90] = 0x20000074
        0x00000b84:    6cd0        .l      LDR      r0,[r2,#0x4c]
        0x00000b86:    6c91        .l      LDR      r1,[r2,#0x48]
        0x00000b88:    4788        .G      BLX      r1
        0x00000b8a:    bd10        ..      POP      {r4,pc}
    $d
        0x00000b8c:    40134000    .@.@    DCD    1075003392
        0x00000b90:    20000074    t..     DCD    536871028
    $t
    i.Scankey
    Scankey
        0x00000b94:    b5f8        ..      PUSH     {r3-r7,lr}
        0x00000b96:    481f        .H      LDR      r0,[pc,#124] ; [0xc14] = 0x12e8
        0x00000b98:    6800        .h      LDR      r0,[r0,#0]
        0x00000b9a:    9000        ..      STR      r0,[sp,#0]
        0x00000b9c:    2400        .$      MOVS     r4,#0
        0x00000b9e:    e034        4.      B        0xc0a ; Scankey + 118
        0x00000ba0:    4668        hF      MOV      r0,sp
        0x00000ba2:    5d06        .]      LDRB     r6,[r0,r4]
        0x00000ba4:    2500        .%      MOVS     r5,#0
        0x00000ba6:    e00f        ..      B        0xbc8 ; Scankey + 52
        0x00000ba8:    07f0        ..      LSLS     r0,r6,#31
        0x00000baa:    0fc0        ..      LSRS     r0,r0,#31
        0x00000bac:    2801        .(      CMP      r0,#1
        0x00000bae:    d104        ..      BNE      0xbba ; Scankey + 38
        0x00000bb0:    4629        )F      MOV      r1,r5
        0x00000bb2:    2000        .       MOVS     r0,#0
        0x00000bb4:    f7fffc68    ..h.    BL       DrvGPIO_SetBit ; 0x488
        0x00000bb8:    e003        ..      B        0xbc2 ; Scankey + 46
        0x00000bba:    4629        )F      MOV      r1,r5
        0x00000bbc:    2000        .       MOVS     r0,#0
        0x00000bbe:    f7fffbfd    ....    BL       DrvGPIO_ClrBit ; 0x3bc
        0x00000bc2:    1076        v.      ASRS     r6,r6,#1
        0x00000bc4:    1c68        h.      ADDS     r0,r5,#1
        0x00000bc6:    b2c5        ..      UXTB     r5,r0
        0x00000bc8:    2d06        .-      CMP      r5,#6
        0x00000bca:    dbed        ..      BLT      0xba8 ; Scankey + 20
        0x00000bcc:    f000fa28    ..(.    BL       delay ; 0x1020
        0x00000bd0:    2103        .!      MOVS     r1,#3
        0x00000bd2:    2000        .       MOVS     r0,#0
        0x00000bd4:    f7fffc08    ....    BL       DrvGPIO_GetBit ; 0x3e8
        0x00000bd8:    2800        .(      CMP      r0,#0
        0x00000bda:    d102        ..      BNE      0xbe2 ; Scankey + 78
        0x00000bdc:    1c60        `.      ADDS     r0,r4,#1
        0x00000bde:    b2c0        ..      UXTB     r0,r0
        0x00000be0:    bdf8        ..      POP      {r3-r7,pc}
        0x00000be2:    2104        .!      MOVS     r1,#4
        0x00000be4:    2000        .       MOVS     r0,#0
        0x00000be6:    f7fffbff    ....    BL       DrvGPIO_GetBit ; 0x3e8
        0x00000bea:    2800        .(      CMP      r0,#0
        0x00000bec:    d102        ..      BNE      0xbf4 ; Scankey + 96
        0x00000bee:    1d20         .      ADDS     r0,r4,#4
        0x00000bf0:    b2c0        ..      UXTB     r0,r0
        0x00000bf2:    e7f5        ..      B        0xbe0 ; Scankey + 76
        0x00000bf4:    2105        .!      MOVS     r1,#5
        0x00000bf6:    2000        .       MOVS     r0,#0
        0x00000bf8:    f7fffbf6    ....    BL       DrvGPIO_GetBit ; 0x3e8
        0x00000bfc:    2800        .(      CMP      r0,#0
        0x00000bfe:    d102        ..      BNE      0xc06 ; Scankey + 114
        0x00000c00:    1de0        ..      ADDS     r0,r4,#7
        0x00000c02:    b2c0        ..      UXTB     r0,r0
        0x00000c04:    e7ec        ..      B        0xbe0 ; Scankey + 76
        0x00000c06:    1c60        `.      ADDS     r0,r4,#1
        0x00000c08:    b2c4        ..      UXTB     r4,r0
        0x00000c0a:    2c03        .,      CMP      r4,#3
        0x00000c0c:    dbc8        ..      BLT      0xba0 ; Scankey + 12
        0x00000c0e:    2000        .       MOVS     r0,#0
        0x00000c10:    e7e6        ..      B        0xbe0 ; Scankey + 76
    $d
        0x00000c12:    0000        ..      DCW    0
        0x00000c14:    000012e8    ....    DCD    4840
    $t
    i.SetPACA
    SetPACA
        0x00000c18:    4a3b        ;J      LDR      r2,[pc,#236] ; [0xd08] = 0x20000010
        0x00000c1a:    68d2        .h      LDR      r2,[r2,#0xc]
        0x00000c1c:    6892        .h      LDR      r2,[r2,#8]
        0x00000c1e:    0892        ..      LSRS     r2,r2,#2
        0x00000c20:    0092        ..      LSLS     r2,r2,#2
        0x00000c22:    1c52        R.      ADDS     r2,r2,#1
        0x00000c24:    4b38        8K      LDR      r3,[pc,#224] ; [0xd08] = 0x20000010
        0x00000c26:    68db        .h      LDR      r3,[r3,#0xc]
        0x00000c28:    609a        .`      STR      r2,[r3,#8]
        0x00000c2a:    22b0        ."      MOVS     r2,#0xb0
        0x00000c2c:    4302        .C      ORRS     r2,r2,r0
        0x00000c2e:    4b36        6K      LDR      r3,[pc,#216] ; [0xd08] = 0x20000010
        0x00000c30:    68db        .h      LDR      r3,[r3,#0xc]
        0x00000c32:    621a        .b      STR      r2,[r3,#0x20]
        0x00000c34:    4a34        4J      LDR      r2,[pc,#208] ; [0xd08] = 0x20000010
        0x00000c36:    68d2        .h      LDR      r2,[r2,#0xc]
        0x00000c38:    6812        .h      LDR      r2,[r2,#0]
        0x00000c3a:    0852        R.      LSRS     r2,r2,#1
        0x00000c3c:    0052        R.      LSLS     r2,r2,#1
        0x00000c3e:    1c52        R.      ADDS     r2,r2,#1
        0x00000c40:    4b31        1K      LDR      r3,[pc,#196] ; [0xd08] = 0x20000010
        0x00000c42:    68db        .h      LDR      r3,[r3,#0xc]
        0x00000c44:    601a        .`      STR      r2,[r3,#0]
        0x00000c46:    bf00        ..      NOP      
        0x00000c48:    4a2f        /J      LDR      r2,[pc,#188] ; [0xd08] = 0x20000010
        0x00000c4a:    68d2        .h      LDR      r2,[r2,#0xc]
        0x00000c4c:    6812        .h      LDR      r2,[r2,#0]
        0x00000c4e:    07d2        ..      LSLS     r2,r2,#31
        0x00000c50:    0fd2        ..      LSRS     r2,r2,#31
        0x00000c52:    2a01        .*      CMP      r2,#1
        0x00000c54:    d0f8        ..      BEQ      0xc48 ; SetPACA + 48
        0x00000c56:    4a2c        ,J      LDR      r2,[pc,#176] ; [0xd08] = 0x20000010
        0x00000c58:    68d2        .h      LDR      r2,[r2,#0xc]
        0x00000c5a:    6892        .h      LDR      r2,[r2,#8]
        0x00000c5c:    0892        ..      LSRS     r2,r2,#2
        0x00000c5e:    0092        ..      LSLS     r2,r2,#2
        0x00000c60:    4b29        )K      LDR      r3,[pc,#164] ; [0xd08] = 0x20000010
        0x00000c62:    68db        .h      LDR      r3,[r3,#0xc]
        0x00000c64:    609a        .`      STR      r2,[r3,#8]
        0x00000c66:    4a28        (J      LDR      r2,[pc,#160] ; [0xd08] = 0x20000010
        0x00000c68:    68d2        .h      LDR      r2,[r2,#0xc]
        0x00000c6a:    6892        .h      LDR      r2,[r2,#8]
        0x00000c6c:    0892        ..      LSRS     r2,r2,#2
        0x00000c6e:    0092        ..      LSLS     r2,r2,#2
        0x00000c70:    1c52        R.      ADDS     r2,r2,#1
        0x00000c72:    4b25        %K      LDR      r3,[pc,#148] ; [0xd08] = 0x20000010
        0x00000c74:    68db        .h      LDR      r3,[r3,#0xc]
        0x00000c76:    609a        .`      STR      r2,[r3,#8]
        0x00000c78:    110a        ..      ASRS     r2,r1,#4
        0x00000c7a:    2310        .#      MOVS     r3,#0x10
        0x00000c7c:    431a        .C      ORRS     r2,r2,r3
        0x00000c7e:    4b22        "K      LDR      r3,[pc,#136] ; [0xd08] = 0x20000010
        0x00000c80:    68db        .h      LDR      r3,[r3,#0xc]
        0x00000c82:    621a        .b      STR      r2,[r3,#0x20]
        0x00000c84:    4a20         J      LDR      r2,[pc,#128] ; [0xd08] = 0x20000010
        0x00000c86:    68d2        .h      LDR      r2,[r2,#0xc]
        0x00000c88:    6812        .h      LDR      r2,[r2,#0]
        0x00000c8a:    0852        R.      LSRS     r2,r2,#1
        0x00000c8c:    0052        R.      LSLS     r2,r2,#1
        0x00000c8e:    1c52        R.      ADDS     r2,r2,#1
        0x00000c90:    4b1d        .K      LDR      r3,[pc,#116] ; [0xd08] = 0x20000010
        0x00000c92:    68db        .h      LDR      r3,[r3,#0xc]
        0x00000c94:    601a        .`      STR      r2,[r3,#0]
        0x00000c96:    bf00        ..      NOP      
        0x00000c98:    4a1b        .J      LDR      r2,[pc,#108] ; [0xd08] = 0x20000010
        0x00000c9a:    68d2        .h      LDR      r2,[r2,#0xc]
        0x00000c9c:    6812        .h      LDR      r2,[r2,#0]
        0x00000c9e:    07d2        ..      LSLS     r2,r2,#31
        0x00000ca0:    0fd2        ..      LSRS     r2,r2,#31
        0x00000ca2:    2a01        .*      CMP      r2,#1
        0x00000ca4:    d0f8        ..      BEQ      0xc98 ; SetPACA + 128
        0x00000ca6:    4a18        .J      LDR      r2,[pc,#96] ; [0xd08] = 0x20000010
        0x00000ca8:    68d2        .h      LDR      r2,[r2,#0xc]
        0x00000caa:    6892        .h      LDR      r2,[r2,#8]
        0x00000cac:    0892        ..      LSRS     r2,r2,#2
        0x00000cae:    0092        ..      LSLS     r2,r2,#2
        0x00000cb0:    4b15        .K      LDR      r3,[pc,#84] ; [0xd08] = 0x20000010
        0x00000cb2:    68db        .h      LDR      r3,[r3,#0xc]
        0x00000cb4:    609a        .`      STR      r2,[r3,#8]
        0x00000cb6:    4a14        .J      LDR      r2,[pc,#80] ; [0xd08] = 0x20000010
        0x00000cb8:    68d2        .h      LDR      r2,[r2,#0xc]
        0x00000cba:    6892        .h      LDR      r2,[r2,#8]
        0x00000cbc:    0892        ..      LSRS     r2,r2,#2
        0x00000cbe:    0092        ..      LSLS     r2,r2,#2
        0x00000cc0:    1c52        R.      ADDS     r2,r2,#1
        0x00000cc2:    4b11        .K      LDR      r3,[pc,#68] ; [0xd08] = 0x20000010
        0x00000cc4:    68db        .h      LDR      r3,[r3,#0xc]
        0x00000cc6:    609a        .`      STR      r2,[r3,#8]
        0x00000cc8:    070a        ..      LSLS     r2,r1,#28
        0x00000cca:    0f12        ..      LSRS     r2,r2,#28
        0x00000ccc:    4b0e        .K      LDR      r3,[pc,#56] ; [0xd08] = 0x20000010
        0x00000cce:    68db        .h      LDR      r3,[r3,#0xc]
        0x00000cd0:    621a        .b      STR      r2,[r3,#0x20]
        0x00000cd2:    4a0d        .J      LDR      r2,[pc,#52] ; [0xd08] = 0x20000010
        0x00000cd4:    68d2        .h      LDR      r2,[r2,#0xc]
        0x00000cd6:    6812        .h      LDR      r2,[r2,#0]
        0x00000cd8:    0852        R.      LSRS     r2,r2,#1
        0x00000cda:    0052        R.      LSLS     r2,r2,#1
        0x00000cdc:    1c52        R.      ADDS     r2,r2,#1
        0x00000cde:    4b0a        .K      LDR      r3,[pc,#40] ; [0xd08] = 0x20000010
        0x00000ce0:    68db        .h      LDR      r3,[r3,#0xc]
        0x00000ce2:    601a        .`      STR      r2,[r3,#0]
        0x00000ce4:    bf00        ..      NOP      
        0x00000ce6:    4a08        .J      LDR      r2,[pc,#32] ; [0xd08] = 0x20000010
        0x00000ce8:    68d2        .h      LDR      r2,[r2,#0xc]
        0x00000cea:    6812        .h      LDR      r2,[r2,#0]
        0x00000cec:    07d2        ..      LSLS     r2,r2,#31
        0x00000cee:    0fd2        ..      LSRS     r2,r2,#31
        0x00000cf0:    2a01        .*      CMP      r2,#1
        0x00000cf2:    d0f8        ..      BEQ      0xce6 ; SetPACA + 206
        0x00000cf4:    4a04        .J      LDR      r2,[pc,#16] ; [0xd08] = 0x20000010
        0x00000cf6:    68d2        .h      LDR      r2,[r2,#0xc]
        0x00000cf8:    6892        .h      LDR      r2,[r2,#8]
        0x00000cfa:    0892        ..      LSRS     r2,r2,#2
        0x00000cfc:    0092        ..      LSLS     r2,r2,#2
        0x00000cfe:    4b02        .K      LDR      r3,[pc,#8] ; [0xd08] = 0x20000010
        0x00000d00:    68db        .h      LDR      r3,[r3,#0xc]
        0x00000d02:    609a        .`      STR      r2,[r3,#8]
        0x00000d04:    4770        pG      BX       lr
    $d
        0x00000d06:    0000        ..      DCW    0
        0x00000d08:    20000010    ...     DCD    536870928
    $t
    i.SysTimerDelay
    SysTimerDelay
        0x00000d0c:    2116        .!      MOVS     r1,#0x16
        0x00000d0e:    4341        AC      MULS     r1,r0,r1
        0x00000d10:    4a06        .J      LDR      r2,[pc,#24] ; [0xd2c] = 0xe000e000
        0x00000d12:    6151        Qa      STR      r1,[r2,#0x14]
        0x00000d14:    2100        .!      MOVS     r1,#0
        0x00000d16:    6191        .a      STR      r1,[r2,#0x18]
        0x00000d18:    2105        .!      MOVS     r1,#5
        0x00000d1a:    6111        .a      STR      r1,[r2,#0x10]
        0x00000d1c:    bf00        ..      NOP      
        0x00000d1e:    4903        .I      LDR      r1,[pc,#12] ; [0xd2c] = 0xe000e000
        0x00000d20:    6909        .i      LDR      r1,[r1,#0x10]
        0x00000d22:    2201        ."      MOVS     r2,#1
        0x00000d24:    0412        ..      LSLS     r2,r2,#16
        0x00000d26:    4211        .B      TST      r1,r2
        0x00000d28:    d0f9        ..      BEQ      0xd1e ; SysTimerDelay + 18
        0x00000d2a:    4770        pG      BX       lr
    $d
        0x00000d2c:    e000e000    ....    DCD    3758153728
    $t
    i.SystemCoreClockUpdate
    SystemCoreClockUpdate
        0x00000d30:    b570        p.      PUSH     {r4-r6,lr}
        0x00000d32:    4820         H      LDR      r0,[pc,#128] ; [0xdb4] = 0x50000200
        0x00000d34:    6900        .i      LDR      r0,[r0,#0x10]
        0x00000d36:    0746        F.      LSLS     r6,r0,#29
        0x00000d38:    0f76        v.      LSRS     r6,r6,#29
        0x00000d3a:    2e05        ..      CMP      r6,#5
        0x00000d3c:    d900        ..      BLS      0xd40 ; SystemCoreClockUpdate + 16
        0x00000d3e:    2604        .&      MOVS     r6,#4
        0x00000d40:    2e02        ..      CMP      r6,#2
        0x00000d42:    d003        ..      BEQ      0xd4c ; SystemCoreClockUpdate + 28
        0x00000d44:    00b0        ..      LSLS     r0,r6,#2
        0x00000d46:    491c        .I      LDR      r1,[pc,#112] ; [0xdb8] = 0x2000003c
        0x00000d48:    580d        .X      LDR      r5,[r1,r0]
        0x00000d4a:    e01e        ..      B        0xd8a ; SystemCoreClockUpdate + 90
        0x00000d4c:    4819        .H      LDR      r0,[pc,#100] ; [0xdb4] = 0x50000200
        0x00000d4e:    6a00        .j      LDR      r0,[r0,#0x20]
        0x00000d50:    0400        ..      LSLS     r0,r0,#16
        0x00000d52:    0f84        ..      LSRS     r4,r0,#30
        0x00000d54:    2c01        .,      CMP      r4,#1
        0x00000d56:    d900        ..      BLS      0xd5a ; SystemCoreClockUpdate + 42
        0x00000d58:    1e64        d.      SUBS     r4,r4,#1
        0x00000d5a:    4a16        .J      LDR      r2,[pc,#88] ; [0xdb4] = 0x50000200
        0x00000d5c:    6a12        .j      LDR      r2,[r2,#0x20]
        0x00000d5e:    0312        ..      LSLS     r2,r2,#12
        0x00000d60:    0fd2        ..      LSRS     r2,r2,#31
        0x00000d62:    d001        ..      BEQ      0xd68 ; SystemCoreClockUpdate + 56
        0x00000d64:    4a15        .J      LDR      r2,[pc,#84] ; [0xdbc] = 0x1518000
        0x00000d66:    e000        ..      B        0xd6a ; SystemCoreClockUpdate + 58
        0x00000d68:    4a15        .J      LDR      r2,[pc,#84] ; [0xdc0] = 0xb71b00
        0x00000d6a:    4b12        .K      LDR      r3,[pc,#72] ; [0xdb4] = 0x50000200
        0x00000d6c:    6a1b        .j      LDR      r3,[r3,#0x20]
        0x00000d6e:    05db        ..      LSLS     r3,r3,#23
        0x00000d70:    0ddb        ..      LSRS     r3,r3,#23
        0x00000d72:    1c9b        ..      ADDS     r3,r3,#2
        0x00000d74:    4610        .F      MOV      r0,r2
        0x00000d76:    4358        XC      MULS     r0,r3,r0
        0x00000d78:    4a0e        .J      LDR      r2,[pc,#56] ; [0xdb4] = 0x50000200
        0x00000d7a:    6a12        .j      LDR      r2,[r2,#0x20]
        0x00000d7c:    0492        ..      LSLS     r2,r2,#18
        0x00000d7e:    0ed2        ..      LSRS     r2,r2,#27
        0x00000d80:    1c91        ..      ADDS     r1,r2,#2
        0x00000d82:    f7fffa23    ..#.    BL       __aeabi_uidiv ; 0x1cc
        0x00000d86:    40e0        .@      LSRS     r0,r0,r4
        0x00000d88:    4605        .F      MOV      r5,r0
        0x00000d8a:    480a        .H      LDR      r0,[pc,#40] ; [0xdb4] = 0x50000200
        0x00000d8c:    6980        .i      LDR      r0,[r0,#0x18]
        0x00000d8e:    0700        ..      LSLS     r0,r0,#28
        0x00000d90:    0f00        ..      LSRS     r0,r0,#28
        0x00000d92:    1c41        A.      ADDS     r1,r0,#1
        0x00000d94:    4628        (F      MOV      r0,r5
        0x00000d96:    f7fffa19    ....    BL       __aeabi_uidiv ; 0x1cc
        0x00000d9a:    490a        .I      LDR      r1,[pc,#40] ; [0xdc4] = 0x20000034
        0x00000d9c:    6008        .`      STR      r0,[r1,#0]
        0x00000d9e:    490a        .I      LDR      r1,[pc,#40] ; [0xdc8] = 0xf4240
        0x00000da0:    4808        .H      LDR      r0,[pc,#32] ; [0xdc4] = 0x20000034
        0x00000da2:    6800        .h      LDR      r0,[r0,#0]
        0x00000da4:    104a        J.      ASRS     r2,r1,#1
        0x00000da6:    1880        ..      ADDS     r0,r0,r2
        0x00000da8:    f7fffa10    ....    BL       __aeabi_uidiv ; 0x1cc
        0x00000dac:    4907        .I      LDR      r1,[pc,#28] ; [0xdcc] = 0x20000038
        0x00000dae:    6008        .`      STR      r0,[r1,#0]
        0x00000db0:    bd70        p.      POP      {r4-r6,pc}
    $d
        0x00000db2:    0000        ..      DCW    0
        0x00000db4:    50000200    ...P    DCD    1342177792
        0x00000db8:    2000003c    <..     DCD    536870972
        0x00000dbc:    01518000    ..Q.    DCD    22118400
        0x00000dc0:    00b71b00    ....    DCD    12000000
        0x00000dc4:    20000034    4..     DCD    536870964
        0x00000dc8:    000f4240    @B..    DCD    1000000
        0x00000dcc:    20000038    8..     DCD    536870968
    $t
    i.SystemInit
    SystemInit
        0x00000dd0:    4770        pG      BX       lr
        0x00000dd2:    0000        ..      MOVS     r0,r0
    i.TMR0_IRQHandler
    TMR0_IRQHandler
        0x00000dd4:    b510        ..      PUSH     {r4,lr}
        0x00000dd6:    2400        .$      MOVS     r4,#0
        0x00000dd8:    4819        .H      LDR      r0,[pc,#100] ; [0xe40] = 0x40010000
        0x00000dda:    6880        .h      LDR      r0,[r0,#8]
        0x00000ddc:    0840        @.      LSRS     r0,r0,#1
        0x00000dde:    0040        @.      LSLS     r0,r0,#1
        0x00000de0:    1c40        @.      ADDS     r0,r0,#1
        0x00000de2:    4917        .I      LDR      r1,[pc,#92] ; [0xe40] = 0x40010000
        0x00000de4:    6088        .`      STR      r0,[r1,#8]
        0x00000de6:    4817        .H      LDR      r0,[pc,#92] ; [0xe44] = 0x20000000
        0x00000de8:    7800        .x      LDRB     r0,[r0,#0]
        0x00000dea:    1c40        @.      ADDS     r0,r0,#1
        0x00000dec:    4915        .I      LDR      r1,[pc,#84] ; [0xe44] = 0x20000000
        0x00000dee:    7008        .p      STRB     r0,[r1,#0]
        0x00000df0:    4608        .F      MOV      r0,r1
        0x00000df2:    7800        .x      LDRB     r0,[r0,#0]
        0x00000df4:    2805        .(      CMP      r0,#5
        0x00000df6:    d122        ".      BNE      0xe3e ; TMR0_IRQHandler + 106
        0x00000df8:    4813        .H      LDR      r0,[pc,#76] ; [0xe48] = 0x20000001
        0x00000dfa:    7801        .x      LDRB     r1,[r0,#0]
        0x00000dfc:    2002        .       MOVS     r0,#2
        0x00000dfe:    f7fffadd    ....    BL       DrvGPIO_ClrBit ; 0x3bc
        0x00000e02:    4811        .H      LDR      r0,[pc,#68] ; [0xe48] = 0x20000001
        0x00000e04:    7800        .x      LDRB     r0,[r0,#0]
        0x00000e06:    1c40        @.      ADDS     r0,r0,#1
        0x00000e08:    490f        .I      LDR      r1,[pc,#60] ; [0xe48] = 0x20000001
        0x00000e0a:    7008        .p      STRB     r0,[r1,#0]
        0x00000e0c:    2000        .       MOVS     r0,#0
        0x00000e0e:    490d        .I      LDR      r1,[pc,#52] ; [0xe44] = 0x20000000
        0x00000e10:    7008        .p      STRB     r0,[r1,#0]
        0x00000e12:    480e        .H      LDR      r0,[pc,#56] ; [0xe4c] = 0x20000004
        0x00000e14:    6800        .h      LDR      r0,[r0,#0]
        0x00000e16:    1c40        @.      ADDS     r0,r0,#1
        0x00000e18:    490c        .I      LDR      r1,[pc,#48] ; [0xe4c] = 0x20000004
        0x00000e1a:    6008        .`      STR      r0,[r1,#0]
        0x00000e1c:    480a        .H      LDR      r0,[pc,#40] ; [0xe48] = 0x20000001
        0x00000e1e:    7800        .x      LDRB     r0,[r0,#0]
        0x00000e20:    2811        .(      CMP      r0,#0x11
        0x00000e22:    d10c        ..      BNE      0xe3e ; TMR0_IRQHandler + 106
        0x00000e24:    240c        .$      MOVS     r4,#0xc
        0x00000e26:    e005        ..      B        0xe34 ; TMR0_IRQHandler + 96
        0x00000e28:    4621        !F      MOV      r1,r4
        0x00000e2a:    2002        .       MOVS     r0,#2
        0x00000e2c:    f7fffb2c    ..,.    BL       DrvGPIO_SetBit ; 0x488
        0x00000e30:    1c60        `.      ADDS     r0,r4,#1
        0x00000e32:    b2c4        ..      UXTB     r4,r0
        0x00000e34:    2c10        .,      CMP      r4,#0x10
        0x00000e36:    dbf7        ..      BLT      0xe28 ; TMR0_IRQHandler + 84
        0x00000e38:    200c        .       MOVS     r0,#0xc
        0x00000e3a:    4903        .I      LDR      r1,[pc,#12] ; [0xe48] = 0x20000001
        0x00000e3c:    7008        .p      STRB     r0,[r1,#0]
        0x00000e3e:    bd10        ..      POP      {r4,pc}
    $d
        0x00000e40:    40010000    ...@    DCD    1073807360
        0x00000e44:    20000000    ...     DCD    536870912
        0x00000e48:    20000001    ...     DCD    536870913
        0x00000e4c:    20000004    ...     DCD    536870916
    $t
    i.Timer_initial
    Timer_initial
        0x00000e50:    4823        #H      LDR      r0,[pc,#140] ; [0xee0] = 0x50000200
        0x00000e52:    6940        @i      LDR      r0,[r0,#0x14]
        0x00000e54:    2107        .!      MOVS     r1,#7
        0x00000e56:    0209        ..      LSLS     r1,r1,#8
        0x00000e58:    4388        .C      BICS     r0,r0,r1
        0x00000e5a:    4921        !I      LDR      r1,[pc,#132] ; [0xee0] = 0x50000200
        0x00000e5c:    6148        Ha      STR      r0,[r1,#0x14]
        0x00000e5e:    4608        .F      MOV      r0,r1
        0x00000e60:    6880        .h      LDR      r0,[r0,#8]
        0x00000e62:    2104        .!      MOVS     r1,#4
        0x00000e64:    4388        .C      BICS     r0,r0,r1
        0x00000e66:    1d00        ..      ADDS     r0,r0,#4
        0x00000e68:    491d        .I      LDR      r1,[pc,#116] ; [0xee0] = 0x50000200
        0x00000e6a:    6088        .`      STR      r0,[r1,#8]
        0x00000e6c:    481d        .H      LDR      r0,[pc,#116] ; [0xee4] = 0x40010000
        0x00000e6e:    6800        .h      LDR      r0,[r0,#0]
        0x00000e70:    491d        .I      LDR      r1,[pc,#116] ; [0xee8] = 0x18000000
        0x00000e72:    4388        .C      BICS     r0,r0,r1
        0x00000e74:    2101        .!      MOVS     r1,#1
        0x00000e76:    06c9        ..      LSLS     r1,r1,#27
        0x00000e78:    1840        @.      ADDS     r0,r0,r1
        0x00000e7a:    491a        .I      LDR      r1,[pc,#104] ; [0xee4] = 0x40010000
        0x00000e7c:    6008        .`      STR      r0,[r1,#0]
        0x00000e7e:    4608        .F      MOV      r0,r1
        0x00000e80:    6800        .h      LDR      r0,[r0,#0]
        0x00000e82:    0a00        ..      LSRS     r0,r0,#8
        0x00000e84:    0200        ..      LSLS     r0,r0,#8
        0x00000e86:    6008        .`      STR      r0,[r1,#0]
        0x00000e88:    4818        .H      LDR      r0,[pc,#96] ; [0xeec] = 0xf4240
        0x00000e8a:    6048        H`      STR      r0,[r1,#4]
        0x00000e8c:    4608        .F      MOV      r0,r1
        0x00000e8e:    6800        .h      LDR      r0,[r0,#0]
        0x00000e90:    4917        .I      LDR      r1,[pc,#92] ; [0xef0] = 0x20000000
        0x00000e92:    4388        .C      BICS     r0,r0,r1
        0x00000e94:    1840        @.      ADDS     r0,r0,r1
        0x00000e96:    4913        .I      LDR      r1,[pc,#76] ; [0xee4] = 0x40010000
        0x00000e98:    6008        .`      STR      r0,[r1,#0]
        0x00000e9a:    4608        .F      MOV      r0,r1
        0x00000e9c:    6880        .h      LDR      r0,[r0,#8]
        0x00000e9e:    0840        @.      LSRS     r0,r0,#1
        0x00000ea0:    0040        @.      LSLS     r0,r0,#1
        0x00000ea2:    1c40        @.      ADDS     r0,r0,#1
        0x00000ea4:    6088        .`      STR      r0,[r1,#8]
        0x00000ea6:    2008        .       MOVS     r0,#8
        0x00000ea8:    2101        .!      MOVS     r1,#1
        0x00000eaa:    4081        .@      LSLS     r1,r1,r0
        0x00000eac:    4a11        .J      LDR      r2,[pc,#68] ; [0xef4] = 0xe000e100
        0x00000eae:    6011        .`      STR      r1,[r2,#0]
        0x00000eb0:    bf00        ..      NOP      
        0x00000eb2:    480c        .H      LDR      r0,[pc,#48] ; [0xee4] = 0x40010000
        0x00000eb4:    6800        .h      LDR      r0,[r0,#0]
        0x00000eb6:    4910        .I      LDR      r1,[pc,#64] ; [0xef8] = 0x4000000
        0x00000eb8:    4388        .C      BICS     r0,r0,r1
        0x00000eba:    1840        @.      ADDS     r0,r0,r1
        0x00000ebc:    4909        .I      LDR      r1,[pc,#36] ; [0xee4] = 0x40010000
        0x00000ebe:    6008        .`      STR      r0,[r1,#0]
        0x00000ec0:    4608        .F      MOV      r0,r1
        0x00000ec2:    6800        .h      LDR      r0,[r0,#0]
        0x00000ec4:    490d        .I      LDR      r1,[pc,#52] ; [0xefc] = 0x40000000
        0x00000ec6:    4388        .C      BICS     r0,r0,r1
        0x00000ec8:    1840        @.      ADDS     r0,r0,r1
        0x00000eca:    4906        .I      LDR      r1,[pc,#24] ; [0xee4] = 0x40010000
        0x00000ecc:    6008        .`      STR      r0,[r1,#0]
        0x00000ece:    4608        .F      MOV      r0,r1
        0x00000ed0:    6800        .h      LDR      r0,[r0,#0]
        0x00000ed2:    490b        .I      LDR      r1,[pc,#44] ; [0xf00] = 0x10000
        0x00000ed4:    4388        .C      BICS     r0,r0,r1
        0x00000ed6:    1840        @.      ADDS     r0,r0,r1
        0x00000ed8:    4902        .I      LDR      r1,[pc,#8] ; [0xee4] = 0x40010000
        0x00000eda:    6008        .`      STR      r0,[r1,#0]
        0x00000edc:    4770        pG      BX       lr
    $d
        0x00000ede:    0000        ..      DCW    0
        0x00000ee0:    50000200    ...P    DCD    1342177792
        0x00000ee4:    40010000    ...@    DCD    1073807360
        0x00000ee8:    18000000    ....    DCD    402653184
        0x00000eec:    000f4240    @B..    DCD    1000000
        0x00000ef0:    20000000    ...     DCD    536870912
        0x00000ef4:    e000e100    ....    DCD    3758153984
        0x00000ef8:    04000000    ....    DCD    67108864
        0x00000efc:    40000000    ...@    DCD    1073741824
        0x00000f00:    00010000    ....    DCD    65536
    $t
    i.UART02_IRQHandler
    UART02_IRQHandler
        0x00000f04:    b570        p.      PUSH     {r4-r6,lr}
        0x00000f06:    480a        .H      LDR      r0,[pc,#40] ; [0xf30] = 0x40050000
        0x00000f08:    69c4        .i      LDR      r4,[r0,#0x1c]
        0x00000f0a:    480a        .H      LDR      r0,[pc,#40] ; [0xf34] = 0x40154000
        0x00000f0c:    69c5        .i      LDR      r5,[r0,#0x1c]
        0x00000f0e:    480a        .H      LDR      r0,[pc,#40] ; [0xf38] = 0x20000058
        0x00000f10:    6800        .h      LDR      r0,[r0,#0]
        0x00000f12:    2800        .(      CMP      r0,#0
        0x00000f14:    d003        ..      BEQ      0xf1e ; UART02_IRQHandler + 26
        0x00000f16:    4620         F      MOV      r0,r4
        0x00000f18:    4907        .I      LDR      r1,[pc,#28] ; [0xf38] = 0x20000058
        0x00000f1a:    6809        .h      LDR      r1,[r1,#0]
        0x00000f1c:    4788        .G      BLX      r1
        0x00000f1e:    4807        .H      LDR      r0,[pc,#28] ; [0xf3c] = 0x20000060
        0x00000f20:    6800        .h      LDR      r0,[r0,#0]
        0x00000f22:    2800        .(      CMP      r0,#0
        0x00000f24:    d003        ..      BEQ      0xf2e ; UART02_IRQHandler + 42
        0x00000f26:    4628        (F      MOV      r0,r5
        0x00000f28:    4904        .I      LDR      r1,[pc,#16] ; [0xf3c] = 0x20000060
        0x00000f2a:    6809        .h      LDR      r1,[r1,#0]
        0x00000f2c:    4788        .G      BLX      r1
        0x00000f2e:    bd70        p.      POP      {r4-r6,pc}
    $d
        0x00000f30:    40050000    ...@    DCD    1074069504
        0x00000f34:    40154000    .@.@    DCD    1075134464
        0x00000f38:    20000058    X..     DCD    536871000
        0x00000f3c:    20000060    `..     DCD    536871008
    $t
    i.UART1_IRQHandler
    UART1_IRQHandler
        0x00000f40:    b510        ..      PUSH     {r4,lr}
        0x00000f42:    4805        .H      LDR      r0,[pc,#20] ; [0xf58] = 0x40150000
        0x00000f44:    69c4        .i      LDR      r4,[r0,#0x1c]
        0x00000f46:    4805        .H      LDR      r0,[pc,#20] ; [0xf5c] = 0x2000005c
        0x00000f48:    6800        .h      LDR      r0,[r0,#0]
        0x00000f4a:    2800        .(      CMP      r0,#0
        0x00000f4c:    d003        ..      BEQ      0xf56 ; UART1_IRQHandler + 22
        0x00000f4e:    4620         F      MOV      r0,r4
        0x00000f50:    4902        .I      LDR      r1,[pc,#8] ; [0xf5c] = 0x2000005c
        0x00000f52:    6809        .h      LDR      r1,[r1,#0]
        0x00000f54:    4788        .G      BLX      r1
        0x00000f56:    bd10        ..      POP      {r4,pc}
    $d
        0x00000f58:    40150000    ...@    DCD    1075118080
        0x00000f5c:    2000005c    \..     DCD    536871004
    $t
    i.WriteData
    WriteData
        0x00000f60:    4914        .I      LDR      r1,[pc,#80] ; [0xfb4] = 0x20000010
        0x00000f62:    68c9        .h      LDR      r1,[r1,#0xc]
        0x00000f64:    6889        .h      LDR      r1,[r1,#8]
        0x00000f66:    0889        ..      LSRS     r1,r1,#2
        0x00000f68:    0089        ..      LSLS     r1,r1,#2
        0x00000f6a:    1c49        I.      ADDS     r1,r1,#1
        0x00000f6c:    4a11        .J      LDR      r2,[pc,#68] ; [0xfb4] = 0x20000010
        0x00000f6e:    68d2        .h      LDR      r2,[r2,#0xc]
        0x00000f70:    6091        .`      STR      r1,[r2,#8]
        0x00000f72:    21ff        .!      MOVS     r1,#0xff
        0x00000f74:    3101        .1      ADDS     r1,#1
        0x00000f76:    4301        .C      ORRS     r1,r1,r0
        0x00000f78:    4a0e        .J      LDR      r2,[pc,#56] ; [0xfb4] = 0x20000010
        0x00000f7a:    68d2        .h      LDR      r2,[r2,#0xc]
        0x00000f7c:    6211        .b      STR      r1,[r2,#0x20]
        0x00000f7e:    490d        .I      LDR      r1,[pc,#52] ; [0xfb4] = 0x20000010
        0x00000f80:    68c9        .h      LDR      r1,[r1,#0xc]
        0x00000f82:    6809        .h      LDR      r1,[r1,#0]
        0x00000f84:    0849        I.      LSRS     r1,r1,#1
        0x00000f86:    0049        I.      LSLS     r1,r1,#1
        0x00000f88:    1c49        I.      ADDS     r1,r1,#1
        0x00000f8a:    4a0a        .J      LDR      r2,[pc,#40] ; [0xfb4] = 0x20000010
        0x00000f8c:    68d2        .h      LDR      r2,[r2,#0xc]
        0x00000f8e:    6011        .`      STR      r1,[r2,#0]
        0x00000f90:    bf00        ..      NOP      
        0x00000f92:    4908        .I      LDR      r1,[pc,#32] ; [0xfb4] = 0x20000010
        0x00000f94:    68c9        .h      LDR      r1,[r1,#0xc]
        0x00000f96:    6809        .h      LDR      r1,[r1,#0]
        0x00000f98:    07c9        ..      LSLS     r1,r1,#31
        0x00000f9a:    0fc9        ..      LSRS     r1,r1,#31
        0x00000f9c:    2901        .)      CMP      r1,#1
        0x00000f9e:    d0f8        ..      BEQ      0xf92 ; WriteData + 50
        0x00000fa0:    4904        .I      LDR      r1,[pc,#16] ; [0xfb4] = 0x20000010
        0x00000fa2:    68c9        .h      LDR      r1,[r1,#0xc]
        0x00000fa4:    6889        .h      LDR      r1,[r1,#8]
        0x00000fa6:    0889        ..      LSRS     r1,r1,#2
        0x00000fa8:    0089        ..      LSLS     r1,r1,#2
        0x00000faa:    4a02        .J      LDR      r2,[pc,#8] ; [0xfb4] = 0x20000010
        0x00000fac:    68d2        .h      LDR      r2,[r2,#0xc]
        0x00000fae:    6091        .`      STR      r1,[r2,#8]
        0x00000fb0:    4770        pG      BX       lr
    $d
        0x00000fb2:    0000        ..      DCW    0
        0x00000fb4:    20000010    ...     DCD    536870928
    $t
    i.__ARM_common_switch8
    __ARM_common_switch8
        0x00000fb8:    b430        0.      PUSH     {r4,r5}
        0x00000fba:    4674        tF      MOV      r4,lr
        0x00000fbc:    1e64        d.      SUBS     r4,r4,#1
        0x00000fbe:    7825        %x      LDRB     r5,[r4,#0]
        0x00000fc0:    1c64        d.      ADDS     r4,r4,#1
        0x00000fc2:    42ab        .B      CMP      r3,r5
        0x00000fc4:    d304        ..      BCC      0xfd0 ; __ARM_common_switch8 + 24
        0x00000fc6:    5d63        c]      LDRB     r3,[r4,r5]
        0x00000fc8:    005b        [.      LSLS     r3,r3,#1
        0x00000fca:    18e3        ..      ADDS     r3,r4,r3
        0x00000fcc:    bc30        0.      POP      {r4,r5}
        0x00000fce:    4718        .G      BX       r3
        0x00000fd0:    461d        .F      MOV      r5,r3
        0x00000fd2:    e7f8        ..      B        0xfc6 ; __ARM_common_switch8 + 14
    i.close_seven_segment
    close_seven_segment
        0x00000fd4:    b510        ..      PUSH     {r4,lr}
        0x00000fd6:    2104        .!      MOVS     r1,#4
        0x00000fd8:    2002        .       MOVS     r0,#2
        0x00000fda:    f7fff9ef    ....    BL       DrvGPIO_ClrBit ; 0x3bc
        0x00000fde:    2105        .!      MOVS     r1,#5
        0x00000fe0:    2002        .       MOVS     r0,#2
        0x00000fe2:    f7fff9eb    ....    BL       DrvGPIO_ClrBit ; 0x3bc
        0x00000fe6:    2106        .!      MOVS     r1,#6
        0x00000fe8:    2002        .       MOVS     r0,#2
        0x00000fea:    f7fff9e7    ....    BL       DrvGPIO_ClrBit ; 0x3bc
        0x00000fee:    2107        .!      MOVS     r1,#7
        0x00000ff0:    2002        .       MOVS     r0,#2
        0x00000ff2:    f7fff9e3    ....    BL       DrvGPIO_ClrBit ; 0x3bc
        0x00000ff6:    bd10        ..      POP      {r4,pc}
    i.clr_all_pannal
    clr_all_pannal
        0x00000ff8:    b510        ..      PUSH     {r4,lr}
        0x00000ffa:    2400        .$      MOVS     r4,#0
        0x00000ffc:    2100        .!      MOVS     r1,#0
        0x00000ffe:    4608        .F      MOV      r0,r1
        0x00001000:    f7fffe0a    ....    BL       SetPACA ; 0xc18
        0x00001004:    bf00        ..      NOP      
        0x00001006:    e003        ..      B        0x1010 ; clr_all_pannal + 24
        0x00001008:    2000        .       MOVS     r0,#0
        0x0000100a:    f7ffffa9    ....    BL       WriteData ; 0xf60
        0x0000100e:    1c64        d.      ADDS     r4,r4,#1
        0x00001010:    2021        !       MOVS     r0,#0x21
        0x00001012:    0140        @.      LSLS     r0,r0,#5
        0x00001014:    4284        .B      CMP      r4,r0
        0x00001016:    dbf7        ..      BLT      0x1008 ; clr_all_pannal + 16
        0x00001018:    200f        .       MOVS     r0,#0xf
        0x0000101a:    f7ffffa1    ....    BL       WriteData ; 0xf60
        0x0000101e:    bd10        ..      POP      {r4,pc}
    i.delay
    delay
        0x00001020:    2000        .       MOVS     r0,#0
        0x00001022:    e000        ..      B        0x1026 ; delay + 6
        0x00001024:    1c40        @.      ADDS     r0,r0,#1
        0x00001026:    217d        }!      MOVS     r1,#0x7d
        0x00001028:    00c9        ..      LSLS     r1,r1,#3
        0x0000102a:    4288        .B      CMP      r0,r1
        0x0000102c:    dbfa        ..      BLT      0x1024 ; delay + 4
        0x0000102e:    4770        pG      BX       lr
    i.delay_loop
    delay_loop
        0x00001030:    2000        .       MOVS     r0,#0
        0x00001032:    e000        ..      B        0x1036 ; delay_loop + 6
        0x00001034:    1c40        @.      ADDS     r0,r0,#1
        0x00001036:    217d        }!      MOVS     r1,#0x7d
        0x00001038:    0189        ..      LSLS     r1,r1,#6
        0x0000103a:    4288        .B      CMP      r0,r1
        0x0000103c:    d3fa        ..      BCC      0x1034 ; delay_loop + 4
        0x0000103e:    4770        pG      BX       lr
    i.get_pressed_number
    get_pressed_number
        0x00001040:    b570        p.      PUSH     {r4-r6,lr}
        0x00001042:    2400        .$      MOVS     r4,#0
        0x00001044:    2510        .%      MOVS     r5,#0x10
        0x00001046:    f7fffda5    ....    BL       Scankey ; 0xb94
        0x0000104a:    4604        .F      MOV      r4,r0
        0x0000104c:    2c07        .,      CMP      r4,#7
        0x0000104e:    d101        ..      BNE      0x1054 ; get_pressed_number + 20
        0x00001050:    2561        a%      MOVS     r5,#0x61
        0x00001052:    e0be        ..      B        0x11d2 ; get_pressed_number + 402
        0x00001054:    2c08        .,      CMP      r4,#8
        0x00001056:    d101        ..      BNE      0x105c ; get_pressed_number + 28
        0x00001058:    2562        b%      MOVS     r5,#0x62
        0x0000105a:    e0ba        ..      B        0x11d2 ; get_pressed_number + 402
        0x0000105c:    2d09        .-      CMP      r5,#9
        0x0000105e:    d101        ..      BNE      0x1064 ; get_pressed_number + 36
        0x00001060:    2563        c%      MOVS     r5,#0x63
        0x00001062:    e0b6        ..      B        0x11d2 ; get_pressed_number + 402
        0x00001064:    485e        ^H      LDR      r0,[pc,#376] ; [0x11e0] = 0x20000008
        0x00001066:    6800        .h      LDR      r0,[r0,#0]
        0x00001068:    2804        .(      CMP      r0,#4
        0x0000106a:    d0f2        ..      BEQ      0x1052 ; get_pressed_number + 18
        0x0000106c:    485d        ]H      LDR      r0,[pc,#372] ; [0x11e4] = 0x20000004
        0x0000106e:    6800        .h      LDR      r0,[r0,#0]
        0x00001070:    2804        .(      CMP      r0,#4
        0x00001072:    d275        u.      BCS      0x1160 ; get_pressed_number + 288
        0x00001074:    4623        #F      MOV      r3,r4
        0x00001076:    f7ffff9f    ....    BL       __ARM_common_switch8 ; 0xfb8
    $d
        0x0000107a:    9207        ..      DCW    37383
        0x0000107c:    4b311705    ..1K    DCD    1261508357
        0x00001080:    0092785d    ]x..    DCD    9599069
    $t
        0x00001084:    4858        XH      LDR      r0,[pc,#352] ; [0x11e8] = 0x2000000c
        0x00001086:    4956        VI      LDR      r1,[pc,#344] ; [0x11e0] = 0x20000008
        0x00001088:    6809        .h      LDR      r1,[r1,#0]
        0x0000108a:    5c40        @\      LDRB     r0,[r0,r1]
        0x0000108c:    2800        .(      CMP      r0,#0
        0x0000108e:    d005        ..      BEQ      0x109c ; get_pressed_number + 92
        0x00001090:    4855        UH      LDR      r0,[pc,#340] ; [0x11e8] = 0x2000000c
        0x00001092:    4953        SI      LDR      r1,[pc,#332] ; [0x11e0] = 0x20000008
        0x00001094:    6809        .h      LDR      r1,[r1,#0]
        0x00001096:    5c40        @\      LDRB     r0,[r0,r1]
        0x00001098:    2801        .(      CMP      r0,#1
        0x0000109a:    d101        ..      BNE      0x10a0 ; get_pressed_number + 96
        0x0000109c:    2501        .%      MOVS     r5,#1
        0x0000109e:    e002        ..      B        0x10a6 ; get_pressed_number + 102
        0x000010a0:    2500        .%      MOVS     r5,#0
        0x000010a2:    f000f8f1    ....    BL       next_index ; 0x1288
        0x000010a6:    e07a        z.      B        0x119e ; get_pressed_number + 350
        0x000010a8:    484f        OH      LDR      r0,[pc,#316] ; [0x11e8] = 0x2000000c
        0x000010aa:    494d        MI      LDR      r1,[pc,#308] ; [0x11e0] = 0x20000008
        0x000010ac:    6809        .h      LDR      r1,[r1,#0]
        0x000010ae:    5c40        @\      LDRB     r0,[r0,r1]
        0x000010b0:    2802        .(      CMP      r0,#2
        0x000010b2:    d101        ..      BNE      0x10b8 ; get_pressed_number + 120
        0x000010b4:    2503        .%      MOVS     r5,#3
        0x000010b6:    e010        ..      B        0x10da ; get_pressed_number + 154
        0x000010b8:    484b        KH      LDR      r0,[pc,#300] ; [0x11e8] = 0x2000000c
        0x000010ba:    4949        II      LDR      r1,[pc,#292] ; [0x11e0] = 0x20000008
        0x000010bc:    6809        .h      LDR      r1,[r1,#0]
        0x000010be:    5c40        @\      LDRB     r0,[r0,r1]
        0x000010c0:    2803        .(      CMP      r0,#3
        0x000010c2:    d005        ..      BEQ      0x10d0 ; get_pressed_number + 144
        0x000010c4:    4848        HH      LDR      r0,[pc,#288] ; [0x11e8] = 0x2000000c
        0x000010c6:    4946        FI      LDR      r1,[pc,#280] ; [0x11e0] = 0x20000008
        0x000010c8:    6809        .h      LDR      r1,[r1,#0]
        0x000010ca:    5c40        @\      LDRB     r0,[r0,r1]
        0x000010cc:    2804        .(      CMP      r0,#4
        0x000010ce:    d101        ..      BNE      0x10d4 ; get_pressed_number + 148
        0x000010d0:    2504        .%      MOVS     r5,#4
        0x000010d2:    e002        ..      B        0x10da ; get_pressed_number + 154
        0x000010d4:    2502        .%      MOVS     r5,#2
        0x000010d6:    f000f8d7    ....    BL       next_index ; 0x1288
        0x000010da:    e060        `.      B        0x119e ; get_pressed_number + 350
        0x000010dc:    4842        BH      LDR      r0,[pc,#264] ; [0x11e8] = 0x2000000c
        0x000010de:    4940        @I      LDR      r1,[pc,#256] ; [0x11e0] = 0x20000008
        0x000010e0:    6809        .h      LDR      r1,[r1,#0]
        0x000010e2:    5c40        @\      LDRB     r0,[r0,r1]
        0x000010e4:    2805        .(      CMP      r0,#5
        0x000010e6:    d101        ..      BNE      0x10ec ; get_pressed_number + 172
        0x000010e8:    2506        .%      MOVS     r5,#6
        0x000010ea:    e010        ..      B        0x110e ; get_pressed_number + 206
        0x000010ec:    483e        >H      LDR      r0,[pc,#248] ; [0x11e8] = 0x2000000c
        0x000010ee:    493c        <I      LDR      r1,[pc,#240] ; [0x11e0] = 0x20000008
        0x000010f0:    6809        .h      LDR      r1,[r1,#0]
        0x000010f2:    5c40        @\      LDRB     r0,[r0,r1]
        0x000010f4:    2806        .(      CMP      r0,#6
        0x000010f6:    d005        ..      BEQ      0x1104 ; get_pressed_number + 196
        0x000010f8:    483b        ;H      LDR      r0,[pc,#236] ; [0x11e8] = 0x2000000c
        0x000010fa:    4939        9I      LDR      r1,[pc,#228] ; [0x11e0] = 0x20000008
        0x000010fc:    6809        .h      LDR      r1,[r1,#0]
        0x000010fe:    5c40        @\      LDRB     r0,[r0,r1]
        0x00001100:    2807        .(      CMP      r0,#7
        0x00001102:    d101        ..      BNE      0x1108 ; get_pressed_number + 200
        0x00001104:    2507        .%      MOVS     r5,#7
        0x00001106:    e002        ..      B        0x110e ; get_pressed_number + 206
        0x00001108:    2505        .%      MOVS     r5,#5
        0x0000110a:    f000f8bd    ....    BL       next_index ; 0x1288
        0x0000110e:    e046        F.      B        0x119e ; get_pressed_number + 350
        0x00001110:    4835        5H      LDR      r0,[pc,#212] ; [0x11e8] = 0x2000000c
        0x00001112:    4933        3I      LDR      r1,[pc,#204] ; [0x11e0] = 0x20000008
        0x00001114:    6809        .h      LDR      r1,[r1,#0]
        0x00001116:    5c40        @\      LDRB     r0,[r0,r1]
        0x00001118:    2808        .(      CMP      r0,#8
        0x0000111a:    d005        ..      BEQ      0x1128 ; get_pressed_number + 232
        0x0000111c:    4832        2H      LDR      r0,[pc,#200] ; [0x11e8] = 0x2000000c
        0x0000111e:    4930        0I      LDR      r1,[pc,#192] ; [0x11e0] = 0x20000008
        0x00001120:    6809        .h      LDR      r1,[r1,#0]
        0x00001122:    5c40        @\      LDRB     r0,[r0,r1]
        0x00001124:    2809        .(      CMP      r0,#9
        0x00001126:    d101        ..      BNE      0x112c ; get_pressed_number + 236
        0x00001128:    2509        .%      MOVS     r5,#9
        0x0000112a:    e002        ..      B        0x1132 ; get_pressed_number + 242
        0x0000112c:    2508        .%      MOVS     r5,#8
        0x0000112e:    f000f8ab    ....    BL       next_index ; 0x1288
        0x00001132:    e034        4.      B        0x119e ; get_pressed_number + 350
        0x00001134:    482c        ,H      LDR      r0,[pc,#176] ; [0x11e8] = 0x2000000c
        0x00001136:    492a        *I      LDR      r1,[pc,#168] ; [0x11e0] = 0x20000008
        0x00001138:    6809        .h      LDR      r1,[r1,#0]
        0x0000113a:    5c40        @\      LDRB     r0,[r0,r1]
        0x0000113c:    280a        .(      CMP      r0,#0xa
        0x0000113e:    d101        ..      BNE      0x1144 ; get_pressed_number + 260
        0x00001140:    250b        .%      MOVS     r5,#0xb
        0x00001142:    e011        ..      B        0x1168 ; get_pressed_number + 296
        0x00001144:    4828        (H      LDR      r0,[pc,#160] ; [0x11e8] = 0x2000000c
        0x00001146:    4926        &I      LDR      r1,[pc,#152] ; [0x11e0] = 0x20000008
        0x00001148:    6809        .h      LDR      r1,[r1,#0]
        0x0000114a:    5c40        @\      LDRB     r0,[r0,r1]
        0x0000114c:    280b        .(      CMP      r0,#0xb
        0x0000114e:    d005        ..      BEQ      0x115c ; get_pressed_number + 284
        0x00001150:    4825        %H      LDR      r0,[pc,#148] ; [0x11e8] = 0x2000000c
        0x00001152:    4923        #I      LDR      r1,[pc,#140] ; [0x11e0] = 0x20000008
        0x00001154:    6809        .h      LDR      r1,[r1,#0]
        0x00001156:    5c40        @\      LDRB     r0,[r0,r1]
        0x00001158:    280c        .(      CMP      r0,#0xc
        0x0000115a:    d102        ..      BNE      0x1162 ; get_pressed_number + 290
        0x0000115c:    250c        .%      MOVS     r5,#0xc
        0x0000115e:    e003        ..      B        0x1168 ; get_pressed_number + 296
        0x00001160:    e01e        ..      B        0x11a0 ; get_pressed_number + 352
        0x00001162:    250a        .%      MOVS     r5,#0xa
        0x00001164:    f000f890    ....    BL       next_index ; 0x1288
        0x00001168:    e019        ..      B        0x119e ; get_pressed_number + 350
        0x0000116a:    481f        .H      LDR      r0,[pc,#124] ; [0x11e8] = 0x2000000c
        0x0000116c:    491c        .I      LDR      r1,[pc,#112] ; [0x11e0] = 0x20000008
        0x0000116e:    6809        .h      LDR      r1,[r1,#0]
        0x00001170:    5c40        @\      LDRB     r0,[r0,r1]
        0x00001172:    280d        .(      CMP      r0,#0xd
        0x00001174:    d101        ..      BNE      0x117a ; get_pressed_number + 314
        0x00001176:    250e        .%      MOVS     r5,#0xe
        0x00001178:    e010        ..      B        0x119c ; get_pressed_number + 348
        0x0000117a:    481b        .H      LDR      r0,[pc,#108] ; [0x11e8] = 0x2000000c
        0x0000117c:    4918        .I      LDR      r1,[pc,#96] ; [0x11e0] = 0x20000008
        0x0000117e:    6809        .h      LDR      r1,[r1,#0]
        0x00001180:    5c40        @\      LDRB     r0,[r0,r1]
        0x00001182:    280e        .(      CMP      r0,#0xe
        0x00001184:    d005        ..      BEQ      0x1192 ; get_pressed_number + 338
        0x00001186:    4818        .H      LDR      r0,[pc,#96] ; [0x11e8] = 0x2000000c
        0x00001188:    4915        .I      LDR      r1,[pc,#84] ; [0x11e0] = 0x20000008
        0x0000118a:    6809        .h      LDR      r1,[r1,#0]
        0x0000118c:    5c40        @\      LDRB     r0,[r0,r1]
        0x0000118e:    280f        .(      CMP      r0,#0xf
        0x00001190:    d101        ..      BNE      0x1196 ; get_pressed_number + 342
        0x00001192:    250f        .%      MOVS     r5,#0xf
        0x00001194:    e002        ..      B        0x119c ; get_pressed_number + 348
        0x00001196:    250d        .%      MOVS     r5,#0xd
        0x00001198:    f000f876    ..v.    BL       next_index ; 0x1288
        0x0000119c:    bf00        ..      NOP      
        0x0000119e:    e018        ..      B        0x11d2 ; get_pressed_number + 402
        0x000011a0:    4623        #F      MOV      r3,r4
        0x000011a2:    f7ffff09    ....    BL       __ARM_common_switch8 ; 0xfb8
    $d
        0x000011a6:    1107        ..      DCW    4359
        0x000011a8:    0b090705    ....    DCD    185140997
        0x000011ac:    00110f0d    ....    DCD    1117965
    $t
        0x000011b0:    2500        .%      MOVS     r5,#0
        0x000011b2:    e009        ..      B        0x11c8 ; get_pressed_number + 392
        0x000011b4:    2502        .%      MOVS     r5,#2
        0x000011b6:    e007        ..      B        0x11c8 ; get_pressed_number + 392
        0x000011b8:    2505        .%      MOVS     r5,#5
        0x000011ba:    e005        ..      B        0x11c8 ; get_pressed_number + 392
        0x000011bc:    2508        .%      MOVS     r5,#8
        0x000011be:    e003        ..      B        0x11c8 ; get_pressed_number + 392
        0x000011c0:    250a        .%      MOVS     r5,#0xa
        0x000011c2:    e001        ..      B        0x11c8 ; get_pressed_number + 392
        0x000011c4:    250d        .%      MOVS     r5,#0xd
        0x000011c6:    bf00        ..      NOP      
        0x000011c8:    bf00        ..      NOP      
        0x000011ca:    2c00        .,      CMP      r4,#0
        0x000011cc:    d001        ..      BEQ      0x11d2 ; get_pressed_number + 402
        0x000011ce:    f000f85b    ..[.    BL       next_index ; 0x1288
        0x000011d2:    2c00        .,      CMP      r4,#0
        0x000011d4:    d002        ..      BEQ      0x11dc ; get_pressed_number + 412
        0x000011d6:    2000        .       MOVS     r0,#0
        0x000011d8:    4902        .I      LDR      r1,[pc,#8] ; [0x11e4] = 0x20000004
        0x000011da:    6008        .`      STR      r0,[r1,#0]
        0x000011dc:    4628        (F      MOV      r0,r5
        0x000011de:    bd70        p.      POP      {r4-r6,pc}
    $d
        0x000011e0:    20000008    ...     DCD    536870920
        0x000011e4:    20000004    ...     DCD    536870916
        0x000011e8:    2000000c    ...     DCD    536870924
    $t
    i.main
    main
        0x000011ec:    2600        .&      MOVS     r6,#0
        0x000011ee:    2500        .%      MOVS     r5,#0
        0x000011f0:    2400        .$      MOVS     r4,#0
        0x000011f2:    2059        Y       MOVS     r0,#0x59
        0x000011f4:    4920         I      LDR      r1,[pc,#128] ; [0x1278] = 0x50000100
        0x000011f6:    6008        .`      STR      r0,[r1,#0]
        0x000011f8:    2016        .       MOVS     r0,#0x16
        0x000011fa:    6008        .`      STR      r0,[r1,#0]
        0x000011fc:    2088        .       MOVS     r0,#0x88
        0x000011fe:    6008        .`      STR      r0,[r1,#0]
        0x00001200:    2101        .!      MOVS     r1,#1
        0x00001202:    2000        .       MOVS     r0,#0
        0x00001204:    f7fff9b6    ....    BL       DrvSYS_SetOscCtrl ; 0x574
        0x00001208:    481c        .H      LDR      r0,[pc,#112] ; [0x127c] = 0x1388
        0x0000120a:    f7fffd7f    ....    BL       SysTimerDelay ; 0xd0c
        0x0000120e:    2000        .       MOVS     r0,#0
        0x00001210:    f7fff950    ..P.    BL       DrvSYS_SelectHCLKSource ; 0x4b4
        0x00001214:    2000        .       MOVS     r0,#0
        0x00001216:    4918        .I      LDR      r1,[pc,#96] ; [0x1278] = 0x50000100
        0x00001218:    6008        .`      STR      r0,[r1,#0]
        0x0000121a:    2100        .!      MOVS     r1,#0
        0x0000121c:    2003        .       MOVS     r0,#3
        0x0000121e:    f7fff965    ..e.    BL       DrvSYS_SetClockDivider ; 0x4ec
        0x00001222:    250c        .%      MOVS     r5,#0xc
        0x00001224:    e005        ..      B        0x1232 ; main + 70
        0x00001226:    2201        ."      MOVS     r2,#1
        0x00001228:    4629        )F      MOV      r1,r5
        0x0000122a:    2002        .       MOVS     r0,#2
        0x0000122c:    f7fff8f0    ....    BL       DrvGPIO_Open ; 0x410
        0x00001230:    1c6d        m.      ADDS     r5,r5,#1
        0x00001232:    2d10        .-      CMP      r5,#0x10
        0x00001234:    dbf7        ..      BLT      0x1226 ; main + 58
        0x00001236:    f7fffab9    ....    BL       Initial_pannel ; 0x7ac
        0x0000123a:    f7fffedd    ....    BL       clr_all_pannal ; 0xff8
        0x0000123e:    f7fffe07    ....    BL       Timer_initial ; 0xe50
        0x00001242:    f7fffbbd    ....    BL       OpenKeyPad ; 0x9c0
        0x00001246:    e016        ..      B        0x1276 ; main + 138
        0x00001248:    f7fffefa    ....    BL       get_pressed_number ; 0x1040
        0x0000124c:    4606        .F      MOV      r6,r0
        0x0000124e:    2e10        ..      CMP      r6,#0x10
        0x00001250:    da03        ..      BGE      0x125a ; main + 110
        0x00001252:    480b        .H      LDR      r0,[pc,#44] ; [0x1280] = 0x2000000c
        0x00001254:    490b        .I      LDR      r1,[pc,#44] ; [0x1284] = 0x20000008
        0x00001256:    6809        .h      LDR      r1,[r1,#0]
        0x00001258:    5446        FT      STRB     r6,[r0,r1]
        0x0000125a:    2400        .$      MOVS     r4,#0
        0x0000125c:    e009        ..      B        0x1272 ; main + 134
        0x0000125e:    f7fffeb9    ....    BL       close_seven_segment ; 0xfd4
        0x00001262:    4a07        .J      LDR      r2,[pc,#28] ; [0x1280] = 0x2000000c
        0x00001264:    5d11        .]      LDRB     r1,[r2,r4]
        0x00001266:    b2e0        ..      UXTB     r0,r4
        0x00001268:    f000f81e    ....    BL       show_seven_segment ; 0x12a8
        0x0000126c:    f7fffee0    ....    BL       delay_loop ; 0x1030
        0x00001270:    1c64        d.      ADDS     r4,r4,#1
        0x00001272:    2c04        .,      CMP      r4,#4
        0x00001274:    dbf3        ..      BLT      0x125e ; main + 114
        0x00001276:    e7e7        ..      B        0x1248 ; main + 92
    $d
        0x00001278:    50000100    ...P    DCD    1342177536
        0x0000127c:    00001388    ....    DCD    5000
        0x00001280:    2000000c    ...     DCD    536870924
        0x00001284:    20000008    ...     DCD    536870920
    $t
    i.next_index
    next_index
        0x00001288:    4806        .H      LDR      r0,[pc,#24] ; [0x12a4] = 0x20000008
        0x0000128a:    6800        .h      LDR      r0,[r0,#0]
        0x0000128c:    2800        .(      CMP      r0,#0
        0x0000128e:    d005        ..      BEQ      0x129c ; next_index + 20
        0x00001290:    4804        .H      LDR      r0,[pc,#16] ; [0x12a4] = 0x20000008
        0x00001292:    6800        .h      LDR      r0,[r0,#0]
        0x00001294:    1e40        @.      SUBS     r0,r0,#1
        0x00001296:    4903        .I      LDR      r1,[pc,#12] ; [0x12a4] = 0x20000008
        0x00001298:    6008        .`      STR      r0,[r1,#0]
        0x0000129a:    e002        ..      B        0x12a2 ; next_index + 26
        0x0000129c:    2004        .       MOVS     r0,#4
        0x0000129e:    4901        .I      LDR      r1,[pc,#4] ; [0x12a4] = 0x20000008
        0x000012a0:    6008        .`      STR      r0,[r1,#0]
        0x000012a2:    4770        pG      BX       lr
    $d
        0x000012a4:    20000008    ...     DCD    536870920
    $t
    i.show_seven_segment
    show_seven_segment
        0x000012a8:    b5f8        ..      PUSH     {r3-r7,lr}
        0x000012aa:    4605        .F      MOV      r5,r0
        0x000012ac:    460f        .F      MOV      r7,r1
        0x000012ae:    480d        .H      LDR      r0,[pc,#52] ; [0x12e4] = 0x20000020
        0x000012b0:    5dc6        .]      LDRB     r6,[r0,r7]
        0x000012b2:    2400        .$      MOVS     r4,#0
        0x000012b4:    e00f        ..      B        0x12d6 ; show_seven_segment + 46
        0x000012b6:    07f0        ..      LSLS     r0,r6,#31
        0x000012b8:    0fc0        ..      LSRS     r0,r0,#31
        0x000012ba:    2801        .(      CMP      r0,#1
        0x000012bc:    d104        ..      BNE      0x12c8 ; show_seven_segment + 32
        0x000012be:    4621        !F      MOV      r1,r4
        0x000012c0:    2004        .       MOVS     r0,#4
        0x000012c2:    f7fff8e1    ....    BL       DrvGPIO_SetBit ; 0x488
        0x000012c6:    e003        ..      B        0x12d0 ; show_seven_segment + 40
        0x000012c8:    4621        !F      MOV      r1,r4
        0x000012ca:    2004        .       MOVS     r0,#4
        0x000012cc:    f7fff876    ..v.    BL       DrvGPIO_ClrBit ; 0x3bc
        0x000012d0:    1076        v.      ASRS     r6,r6,#1
        0x000012d2:    1c60        `.      ADDS     r0,r4,#1
        0x000012d4:    b2c4        ..      UXTB     r4,r0
        0x000012d6:    2c08        .,      CMP      r4,#8
        0x000012d8:    dbed        ..      BLT      0x12b6 ; show_seven_segment + 14
        0x000012da:    1d29        ).      ADDS     r1,r5,#4
        0x000012dc:    2002        .       MOVS     r0,#2
        0x000012de:    f7fff8d3    ....    BL       DrvGPIO_SetBit ; 0x488
        0x000012e2:    bdf8        ..      POP      {r3-r7,pc}
    $d
        0x000012e4:    20000020     ..     DCD    536870944
    $d.realdata
    .constdata
        0x000012e8:    003e3d3b    ;=>.    DCD    4078907
    Region$$Table$$Base
        0x000012ec:    0000130c    ....    DCD    4876
        0x000012f0:    20000000    ...     DCD    536870912
        0x000012f4:    00000074    t...    DCD    116
        0x000012f8:    00000104    ....    DCD    260
        0x000012fc:    00001380    ....    DCD    4992
        0x00001300:    20000074    t..     DCD    536871028
        0x00001304:    000004d4    ....    DCD    1236
        0x00001308:    00000120     ...    DCD    288
    Region$$Table$$Limit

** Section #2 'ER_RW' (SHT_PROGBITS) [SHF_ALLOC + SHF_WRITE]
    Size   : 116 bytes (alignment 4)
    Address: 0x20000000


** Section #3 'ER_ZI' (SHT_NOBITS) [SHF_ALLOC + SHF_WRITE]
    Size   : 1236 bytes (alignment 8)
    Address: 0x20000074


** Section #4 '.debug_abbrev' (SHT_PROGBITS)
    Size   : 1476 bytes


** Section #5 '.debug_frame' (SHT_PROGBITS)
    Size   : 1512 bytes


** Section #6 '.debug_info' (SHT_PROGBITS)
    Size   : 166272 bytes


** Section #7 '.debug_line' (SHT_PROGBITS)
    Size   : 8240 bytes


** Section #8 '.debug_loc' (SHT_PROGBITS)
    Size   : 2188 bytes


** Section #9 '.debug_macinfo' (SHT_PROGBITS)
    Size   : 220256 bytes


** Section #10 '.debug_pubnames' (SHT_PROGBITS)
    Size   : 1608 bytes


** Section #11 '.symtab' (SHT_SYMTAB)
    Size   : 6640 bytes (alignment 4)
    String table #12 '.strtab'
    Last local symbol no. 277


** Section #12 '.strtab' (SHT_STRTAB)
    Size   : 5684 bytes


** Section #13 '.note' (SHT_NOTE)
    Size   : 28 bytes (alignment 4)


** Section #14 '.comment' (SHT_PROGBITS)
    Size   : 6580 bytes


** Section #15 '.shstrtab' (SHT_STRTAB)
    Size   : 156 bytes


